
G2309_P03_FreeRTOS_Semaphore.elf:     file format elf32-avr

Sections:
Idx Name          Size      VMA       LMA       File off  Algn
  0 .text         00004520  00000000  00000000  00000094  2**1
                  CONTENTS, ALLOC, LOAD, READONLY, CODE
  1 .data         00000128  00800060  00004520  000045b4  2**0
                  CONTENTS, ALLOC, LOAD, DATA
  2 .bss          0000048f  00800188  00800188  000046dc  2**0
                  ALLOC
  3 .debug_aranges 00000040  00000000  00000000  000046dc  2**0
                  CONTENTS, READONLY, DEBUGGING
  4 .debug_pubnames 0000005e  00000000  00000000  0000471c  2**0
                  CONTENTS, READONLY, DEBUGGING
  5 .debug_info   00000f80  00000000  00000000  0000477a  2**0
                  CONTENTS, READONLY, DEBUGGING
  6 .debug_abbrev 000003a8  00000000  00000000  000056fa  2**0
                  CONTENTS, READONLY, DEBUGGING
  7 .debug_line   00000524  00000000  00000000  00005aa2  2**0
                  CONTENTS, READONLY, DEBUGGING
  8 .debug_frame  00000040  00000000  00000000  00005fc8  2**2
                  CONTENTS, READONLY, DEBUGGING
  9 .debug_str    00000145  00000000  00000000  00006008  2**0
                  CONTENTS, READONLY, DEBUGGING
 10 .debug_loc    000019f2  00000000  00000000  0000614d  2**0
                  CONTENTS, READONLY, DEBUGGING
 11 .debug_ranges 00000030  00000000  00000000  00007b3f  2**0
                  CONTENTS, READONLY, DEBUGGING

Disassembly of section .text:

00000000 <__vectors>:
       0:	0c 94 2a 00 	jmp	0x54	; 0x54 <__ctors_end>
       4:	0c 94 47 00 	jmp	0x8e	; 0x8e <__bad_interrupt>
       8:	0c 94 47 00 	jmp	0x8e	; 0x8e <__bad_interrupt>
       c:	0c 94 47 00 	jmp	0x8e	; 0x8e <__bad_interrupt>
      10:	0c 94 47 00 	jmp	0x8e	; 0x8e <__bad_interrupt>
      14:	0c 94 47 00 	jmp	0x8e	; 0x8e <__bad_interrupt>
      18:	0c 94 47 00 	jmp	0x8e	; 0x8e <__bad_interrupt>
      1c:	0c 94 4c 19 	jmp	0x3298	; 0x3298 <__vector_7>
      20:	0c 94 47 00 	jmp	0x8e	; 0x8e <__bad_interrupt>
      24:	0c 94 47 00 	jmp	0x8e	; 0x8e <__bad_interrupt>
      28:	0c 94 47 00 	jmp	0x8e	; 0x8e <__bad_interrupt>
      2c:	0c 94 47 00 	jmp	0x8e	; 0x8e <__bad_interrupt>
      30:	0c 94 47 00 	jmp	0x8e	; 0x8e <__bad_interrupt>
      34:	0c 94 cf 12 	jmp	0x259e	; 0x259e <__vector_13>
      38:	0c 94 47 00 	jmp	0x8e	; 0x8e <__bad_interrupt>
      3c:	0c 94 a6 12 	jmp	0x254c	; 0x254c <__vector_15>
      40:	0c 94 47 00 	jmp	0x8e	; 0x8e <__bad_interrupt>
      44:	0c 94 47 00 	jmp	0x8e	; 0x8e <__bad_interrupt>
      48:	0c 94 47 00 	jmp	0x8e	; 0x8e <__bad_interrupt>
      4c:	0c 94 47 00 	jmp	0x8e	; 0x8e <__bad_interrupt>
      50:	0c 94 47 00 	jmp	0x8e	; 0x8e <__bad_interrupt>

00000054 <__ctors_end>:
      54:	11 24       	eor	r1, r1
      56:	1f be       	out	0x3f, r1	; 63
      58:	cf e5       	ldi	r28, 0x5F	; 95
      5a:	d8 e0       	ldi	r29, 0x08	; 8
      5c:	de bf       	out	0x3e, r29	; 62
      5e:	cd bf       	out	0x3d, r28	; 61

00000060 <__do_copy_data>:
      60:	11 e0       	ldi	r17, 0x01	; 1
      62:	a0 e6       	ldi	r26, 0x60	; 96
      64:	b0 e0       	ldi	r27, 0x00	; 0
      66:	e0 e2       	ldi	r30, 0x20	; 32
      68:	f5 e4       	ldi	r31, 0x45	; 69
      6a:	02 c0       	rjmp	.+4      	; 0x70 <.do_copy_data_start>

0000006c <.do_copy_data_loop>:
      6c:	05 90       	lpm	r0, Z+
      6e:	0d 92       	st	X+, r0

00000070 <.do_copy_data_start>:
      70:	a8 38       	cpi	r26, 0x88	; 136
      72:	b1 07       	cpc	r27, r17
      74:	d9 f7       	brne	.-10     	; 0x6c <.do_copy_data_loop>

00000076 <__do_clear_bss>:
      76:	16 e0       	ldi	r17, 0x06	; 6
      78:	a8 e8       	ldi	r26, 0x88	; 136
      7a:	b1 e0       	ldi	r27, 0x01	; 1
      7c:	01 c0       	rjmp	.+2      	; 0x80 <.do_clear_bss_start>

0000007e <.do_clear_bss_loop>:
      7e:	1d 92       	st	X+, r1

00000080 <.do_clear_bss_start>:
      80:	a7 31       	cpi	r26, 0x17	; 23
      82:	b1 07       	cpc	r27, r17
      84:	e1 f7       	brne	.-8      	; 0x7e <.do_clear_bss_loop>
      86:	0e 94 aa 21 	call	0x4354	; 0x4354 <main>
      8a:	0c 94 8e 22 	jmp	0x451c	; 0x451c <_exit>

0000008e <__bad_interrupt>:
      8e:	0c 94 00 00 	jmp	0	; 0x0 <__vectors>

00000092 <__divdi3>:
      92:	a2 e7       	ldi	r26, 0x72	; 114
      94:	b0 e0       	ldi	r27, 0x00	; 0
      96:	ef e4       	ldi	r30, 0x4F	; 79
      98:	f0 e0       	ldi	r31, 0x00	; 0
      9a:	0c 94 38 22 	jmp	0x4470	; 0x4470 <__prologue_saves__>
      9e:	98 2e       	mov	r9, r24
      a0:	89 2e       	mov	r8, r25
      a2:	71 2e       	mov	r7, r17
      a4:	88 e0       	ldi	r24, 0x08	; 8
      a6:	fe 01       	movw	r30, r28
      a8:	31 96       	adiw	r30, 0x01	; 1
      aa:	df 01       	movw	r26, r30
      ac:	68 2e       	mov	r6, r24
      ae:	1d 92       	st	X+, r1
      b0:	6a 94       	dec	r6
      b2:	e9 f7       	brne	.-6      	; 0xae <__divdi3+0x1c>
      b4:	29 83       	std	Y+1, r18	; 0x01
      b6:	3a 83       	std	Y+2, r19	; 0x02
      b8:	4b 83       	std	Y+3, r20	; 0x03
      ba:	5c 83       	std	Y+4, r21	; 0x04
      bc:	6d 83       	std	Y+5, r22	; 0x05
      be:	7e 83       	std	Y+6, r23	; 0x06
      c0:	9f 82       	std	Y+7, r9	; 0x07
      c2:	98 87       	std	Y+8, r25	; 0x08
      c4:	fe 01       	movw	r30, r28
      c6:	39 96       	adiw	r30, 0x09	; 9
      c8:	df 01       	movw	r26, r30
      ca:	1d 92       	st	X+, r1
      cc:	8a 95       	dec	r24
      ce:	e9 f7       	brne	.-6      	; 0xca <__divdi3+0x38>
      d0:	a9 86       	std	Y+9, r10	; 0x09
      d2:	ba 86       	std	Y+10, r11	; 0x0a
      d4:	cb 86       	std	Y+11, r12	; 0x0b
      d6:	dc 86       	std	Y+12, r13	; 0x0c
      d8:	ed 86       	std	Y+13, r14	; 0x0d
      da:	fe 86       	std	Y+14, r15	; 0x0e
      dc:	0f 87       	std	Y+15, r16	; 0x0f
      de:	18 8b       	std	Y+16, r17	; 0x10
      e0:	8d 81       	ldd	r24, Y+5	; 0x05
      e2:	9e 81       	ldd	r25, Y+6	; 0x06
      e4:	af 81       	ldd	r26, Y+7	; 0x07
      e6:	b8 85       	ldd	r27, Y+8	; 0x08
      e8:	b7 fd       	sbrc	r27, 7
      ea:	07 c0       	rjmp	.+14     	; 0xfa <__divdi3+0x68>
      ec:	e1 96       	adiw	r28, 0x31	; 49
      ee:	1c ae       	std	Y+60, r1	; 0x3c
      f0:	1d ae       	std	Y+61, r1	; 0x3d
      f2:	1e ae       	std	Y+62, r1	; 0x3e
      f4:	1f ae       	std	Y+63, r1	; 0x3f
      f6:	e1 97       	sbiw	r28, 0x31	; 49
      f8:	64 c0       	rjmp	.+200    	; 0x1c2 <__divdi3+0x130>
      fa:	21 95       	neg	r18
      fc:	81 e0       	ldi	r24, 0x01	; 1
      fe:	12 16       	cp	r1, r18
     100:	08 f0       	brcs	.+2      	; 0x104 <__divdi3+0x72>
     102:	80 e0       	ldi	r24, 0x00	; 0
     104:	31 95       	neg	r19
     106:	91 e0       	ldi	r25, 0x01	; 1
     108:	13 16       	cp	r1, r19
     10a:	08 f0       	brcs	.+2      	; 0x10e <__divdi3+0x7c>
     10c:	90 e0       	ldi	r25, 0x00	; 0
     10e:	b3 2f       	mov	r27, r19
     110:	b8 1b       	sub	r27, r24
     112:	81 e0       	ldi	r24, 0x01	; 1
     114:	3b 17       	cp	r19, r27
     116:	08 f0       	brcs	.+2      	; 0x11a <__divdi3+0x88>
     118:	80 e0       	ldi	r24, 0x00	; 0
     11a:	98 2b       	or	r25, r24
     11c:	41 95       	neg	r20
     11e:	31 e0       	ldi	r19, 0x01	; 1
     120:	14 16       	cp	r1, r20
     122:	08 f0       	brcs	.+2      	; 0x126 <__divdi3+0x94>
     124:	30 e0       	ldi	r19, 0x00	; 0
     126:	a4 2f       	mov	r26, r20
     128:	a9 1b       	sub	r26, r25
     12a:	81 e0       	ldi	r24, 0x01	; 1
     12c:	4a 17       	cp	r20, r26
     12e:	08 f0       	brcs	.+2      	; 0x132 <__divdi3+0xa0>
     130:	80 e0       	ldi	r24, 0x00	; 0
     132:	38 2b       	or	r19, r24
     134:	51 95       	neg	r21
     136:	91 e0       	ldi	r25, 0x01	; 1
     138:	15 16       	cp	r1, r21
     13a:	08 f0       	brcs	.+2      	; 0x13e <__divdi3+0xac>
     13c:	90 e0       	ldi	r25, 0x00	; 0
     13e:	f5 2f       	mov	r31, r21
     140:	f3 1b       	sub	r31, r19
     142:	81 e0       	ldi	r24, 0x01	; 1
     144:	5f 17       	cp	r21, r31
     146:	08 f0       	brcs	.+2      	; 0x14a <__divdi3+0xb8>
     148:	80 e0       	ldi	r24, 0x00	; 0
     14a:	98 2b       	or	r25, r24
     14c:	61 95       	neg	r22
     14e:	31 e0       	ldi	r19, 0x01	; 1
     150:	16 16       	cp	r1, r22
     152:	08 f0       	brcs	.+2      	; 0x156 <__divdi3+0xc4>
     154:	30 e0       	ldi	r19, 0x00	; 0
     156:	e6 2f       	mov	r30, r22
     158:	e9 1b       	sub	r30, r25
     15a:	81 e0       	ldi	r24, 0x01	; 1
     15c:	6e 17       	cp	r22, r30
     15e:	08 f0       	brcs	.+2      	; 0x162 <__divdi3+0xd0>
     160:	80 e0       	ldi	r24, 0x00	; 0
     162:	38 2b       	or	r19, r24
     164:	71 95       	neg	r23
     166:	41 e0       	ldi	r20, 0x01	; 1
     168:	17 16       	cp	r1, r23
     16a:	08 f0       	brcs	.+2      	; 0x16e <__divdi3+0xdc>
     16c:	40 e0       	ldi	r20, 0x00	; 0
     16e:	57 2f       	mov	r21, r23
     170:	53 1b       	sub	r21, r19
     172:	81 e0       	ldi	r24, 0x01	; 1
     174:	75 17       	cp	r23, r21
     176:	08 f0       	brcs	.+2      	; 0x17a <__divdi3+0xe8>
     178:	80 e0       	ldi	r24, 0x00	; 0
     17a:	48 2b       	or	r20, r24
     17c:	89 2d       	mov	r24, r9
     17e:	81 95       	neg	r24
     180:	91 e0       	ldi	r25, 0x01	; 1
     182:	18 16       	cp	r1, r24
     184:	08 f0       	brcs	.+2      	; 0x188 <__divdi3+0xf6>
     186:	90 e0       	ldi	r25, 0x00	; 0
     188:	68 2e       	mov	r6, r24
     18a:	64 1a       	sub	r6, r20
     18c:	46 2d       	mov	r20, r6
     18e:	31 e0       	ldi	r19, 0x01	; 1
     190:	86 15       	cp	r24, r6
     192:	08 f0       	brcs	.+2      	; 0x196 <__divdi3+0x104>
     194:	30 e0       	ldi	r19, 0x00	; 0
     196:	93 2b       	or	r25, r19
     198:	88 2d       	mov	r24, r8
     19a:	81 95       	neg	r24
     19c:	89 1b       	sub	r24, r25
     19e:	29 83       	std	Y+1, r18	; 0x01
     1a0:	ba 83       	std	Y+2, r27	; 0x02
     1a2:	ab 83       	std	Y+3, r26	; 0x03
     1a4:	fc 83       	std	Y+4, r31	; 0x04
     1a6:	ed 83       	std	Y+5, r30	; 0x05
     1a8:	5e 83       	std	Y+6, r21	; 0x06
     1aa:	4f 83       	std	Y+7, r20	; 0x07
     1ac:	88 87       	std	Y+8, r24	; 0x08
     1ae:	2f ef       	ldi	r18, 0xFF	; 255
     1b0:	3f ef       	ldi	r19, 0xFF	; 255
     1b2:	4f ef       	ldi	r20, 0xFF	; 255
     1b4:	5f ef       	ldi	r21, 0xFF	; 255
     1b6:	e1 96       	adiw	r28, 0x31	; 49
     1b8:	2c af       	std	Y+60, r18	; 0x3c
     1ba:	3d af       	std	Y+61, r19	; 0x3d
     1bc:	4e af       	std	Y+62, r20	; 0x3e
     1be:	5f af       	std	Y+63, r21	; 0x3f
     1c0:	e1 97       	sbiw	r28, 0x31	; 49
     1c2:	8d 85       	ldd	r24, Y+13	; 0x0d
     1c4:	9e 85       	ldd	r25, Y+14	; 0x0e
     1c6:	af 85       	ldd	r26, Y+15	; 0x0f
     1c8:	b8 89       	ldd	r27, Y+16	; 0x10
     1ca:	b7 ff       	sbrs	r27, 7
     1cc:	6a c0       	rjmp	.+212    	; 0x2a2 <__divdi3+0x210>
     1ce:	e1 96       	adiw	r28, 0x31	; 49
     1d0:	4c ad       	ldd	r20, Y+60	; 0x3c
     1d2:	5d ad       	ldd	r21, Y+61	; 0x3d
     1d4:	6e ad       	ldd	r22, Y+62	; 0x3e
     1d6:	7f ad       	ldd	r23, Y+63	; 0x3f
     1d8:	e1 97       	sbiw	r28, 0x31	; 49
     1da:	40 95       	com	r20
     1dc:	50 95       	com	r21
     1de:	60 95       	com	r22
     1e0:	70 95       	com	r23
     1e2:	e1 96       	adiw	r28, 0x31	; 49
     1e4:	4c af       	std	Y+60, r20	; 0x3c
     1e6:	5d af       	std	Y+61, r21	; 0x3d
     1e8:	6e af       	std	Y+62, r22	; 0x3e
     1ea:	7f af       	std	Y+63, r23	; 0x3f
     1ec:	e1 97       	sbiw	r28, 0x31	; 49
     1ee:	a1 94       	neg	r10
     1f0:	81 e0       	ldi	r24, 0x01	; 1
     1f2:	1a 14       	cp	r1, r10
     1f4:	08 f0       	brcs	.+2      	; 0x1f8 <__divdi3+0x166>
     1f6:	80 e0       	ldi	r24, 0x00	; 0
     1f8:	b1 94       	neg	r11
     1fa:	91 e0       	ldi	r25, 0x01	; 1
     1fc:	1b 14       	cp	r1, r11
     1fe:	08 f0       	brcs	.+2      	; 0x202 <__divdi3+0x170>
     200:	90 e0       	ldi	r25, 0x00	; 0
     202:	6b 2d       	mov	r22, r11
     204:	68 1b       	sub	r22, r24
     206:	81 e0       	ldi	r24, 0x01	; 1
     208:	b6 16       	cp	r11, r22
     20a:	08 f0       	brcs	.+2      	; 0x20e <__divdi3+0x17c>
     20c:	80 e0       	ldi	r24, 0x00	; 0
     20e:	98 2b       	or	r25, r24
     210:	c1 94       	neg	r12
     212:	21 e0       	ldi	r18, 0x01	; 1
     214:	1c 14       	cp	r1, r12
     216:	08 f0       	brcs	.+2      	; 0x21a <__divdi3+0x188>
     218:	20 e0       	ldi	r18, 0x00	; 0
     21a:	5c 2d       	mov	r21, r12
     21c:	59 1b       	sub	r21, r25
     21e:	81 e0       	ldi	r24, 0x01	; 1
     220:	c5 16       	cp	r12, r21
     222:	08 f0       	brcs	.+2      	; 0x226 <__divdi3+0x194>
     224:	80 e0       	ldi	r24, 0x00	; 0
     226:	28 2b       	or	r18, r24
     228:	d1 94       	neg	r13
     22a:	91 e0       	ldi	r25, 0x01	; 1
     22c:	1d 14       	cp	r1, r13
     22e:	08 f0       	brcs	.+2      	; 0x232 <__divdi3+0x1a0>
     230:	90 e0       	ldi	r25, 0x00	; 0
     232:	4d 2d       	mov	r20, r13
     234:	42 1b       	sub	r20, r18
     236:	81 e0       	ldi	r24, 0x01	; 1
     238:	d4 16       	cp	r13, r20
     23a:	08 f0       	brcs	.+2      	; 0x23e <__divdi3+0x1ac>
     23c:	80 e0       	ldi	r24, 0x00	; 0
     23e:	98 2b       	or	r25, r24
     240:	e1 94       	neg	r14
     242:	21 e0       	ldi	r18, 0x01	; 1
     244:	1e 14       	cp	r1, r14
     246:	08 f0       	brcs	.+2      	; 0x24a <__divdi3+0x1b8>
     248:	20 e0       	ldi	r18, 0x00	; 0
     24a:	3e 2d       	mov	r19, r14
     24c:	39 1b       	sub	r19, r25
     24e:	81 e0       	ldi	r24, 0x01	; 1
     250:	e3 16       	cp	r14, r19
     252:	08 f0       	brcs	.+2      	; 0x256 <__divdi3+0x1c4>
     254:	80 e0       	ldi	r24, 0x00	; 0
     256:	28 2b       	or	r18, r24
     258:	f1 94       	neg	r15
     25a:	91 e0       	ldi	r25, 0x01	; 1
     25c:	1f 14       	cp	r1, r15
     25e:	08 f0       	brcs	.+2      	; 0x262 <__divdi3+0x1d0>
     260:	90 e0       	ldi	r25, 0x00	; 0
     262:	7f 2d       	mov	r23, r15
     264:	72 1b       	sub	r23, r18
     266:	27 2f       	mov	r18, r23
     268:	81 e0       	ldi	r24, 0x01	; 1
     26a:	f7 16       	cp	r15, r23
     26c:	08 f0       	brcs	.+2      	; 0x270 <__divdi3+0x1de>
     26e:	80 e0       	ldi	r24, 0x00	; 0
     270:	98 2b       	or	r25, r24
     272:	01 95       	neg	r16
     274:	11 e0       	ldi	r17, 0x01	; 1
     276:	10 16       	cp	r1, r16
     278:	08 f0       	brcs	.+2      	; 0x27c <__divdi3+0x1ea>
     27a:	10 e0       	ldi	r17, 0x00	; 0
     27c:	80 2f       	mov	r24, r16
     27e:	89 1b       	sub	r24, r25
     280:	98 2f       	mov	r25, r24
     282:	81 e0       	ldi	r24, 0x01	; 1
     284:	09 17       	cp	r16, r25
     286:	08 f0       	brcs	.+2      	; 0x28a <__divdi3+0x1f8>
     288:	80 e0       	ldi	r24, 0x00	; 0
     28a:	18 2b       	or	r17, r24
     28c:	87 2d       	mov	r24, r7
     28e:	81 95       	neg	r24
     290:	81 1b       	sub	r24, r17
     292:	a9 86       	std	Y+9, r10	; 0x09
     294:	6a 87       	std	Y+10, r22	; 0x0a
     296:	5b 87       	std	Y+11, r21	; 0x0b
     298:	4c 87       	std	Y+12, r20	; 0x0c
     29a:	3d 87       	std	Y+13, r19	; 0x0d
     29c:	2e 87       	std	Y+14, r18	; 0x0e
     29e:	9f 87       	std	Y+15, r25	; 0x0f
     2a0:	88 8b       	std	Y+16, r24	; 0x10
     2a2:	99 81       	ldd	r25, Y+1	; 0x01
     2a4:	2a 81       	ldd	r18, Y+2	; 0x02
     2a6:	3b 81       	ldd	r19, Y+3	; 0x03
     2a8:	4c 81       	ldd	r20, Y+4	; 0x04
     2aa:	5d 81       	ldd	r21, Y+5	; 0x05
     2ac:	6e 81       	ldd	r22, Y+6	; 0x06
     2ae:	7f 81       	ldd	r23, Y+7	; 0x07
     2b0:	a8 85       	ldd	r26, Y+8	; 0x08
     2b2:	b9 85       	ldd	r27, Y+9	; 0x09
     2b4:	1a 85       	ldd	r17, Y+10	; 0x0a
     2b6:	0b 85       	ldd	r16, Y+11	; 0x0b
     2b8:	fc 84       	ldd	r15, Y+12	; 0x0c
     2ba:	ed 84       	ldd	r14, Y+13	; 0x0d
     2bc:	de 84       	ldd	r13, Y+14	; 0x0e
     2be:	cf 84       	ldd	r12, Y+15	; 0x0f
     2c0:	b8 88       	ldd	r11, Y+16	; 0x10
     2c2:	88 e0       	ldi	r24, 0x08	; 8
     2c4:	e1 e1       	ldi	r30, 0x11	; 17
     2c6:	8e 2e       	mov	r8, r30
     2c8:	91 2c       	mov	r9, r1
     2ca:	8c 0e       	add	r8, r28
     2cc:	9d 1e       	adc	r9, r29
     2ce:	f4 01       	movw	r30, r8
     2d0:	68 2e       	mov	r6, r24
     2d2:	11 92       	st	Z+, r1
     2d4:	6a 94       	dec	r6
     2d6:	e9 f7       	brne	.-6      	; 0x2d2 <__divdi3+0x240>
     2d8:	99 8b       	std	Y+17, r25	; 0x11
     2da:	2a 8b       	std	Y+18, r18	; 0x12
     2dc:	3b 8b       	std	Y+19, r19	; 0x13
     2de:	4c 8b       	std	Y+20, r20	; 0x14
     2e0:	5d 8b       	std	Y+21, r21	; 0x15
     2e2:	6e 8b       	std	Y+22, r22	; 0x16
     2e4:	7f 8b       	std	Y+23, r23	; 0x17
     2e6:	a8 8f       	std	Y+24, r26	; 0x18
     2e8:	9e 01       	movw	r18, r28
     2ea:	27 5e       	subi	r18, 0xE7	; 231
     2ec:	3f 4f       	sbci	r19, 0xFF	; 255
     2ee:	f9 01       	movw	r30, r18
     2f0:	11 92       	st	Z+, r1
     2f2:	8a 95       	dec	r24
     2f4:	e9 f7       	brne	.-6      	; 0x2f0 <__divdi3+0x25e>
     2f6:	b9 8f       	std	Y+25, r27	; 0x19
     2f8:	1a 8f       	std	Y+26, r17	; 0x1a
     2fa:	0b 8f       	std	Y+27, r16	; 0x1b
     2fc:	fc 8e       	std	Y+28, r15	; 0x1c
     2fe:	ed 8e       	std	Y+29, r14	; 0x1d
     300:	de 8e       	std	Y+30, r13	; 0x1e
     302:	cf 8e       	std	Y+31, r12	; 0x1f
     304:	b8 a2       	std	Y+32, r11	; 0x20
     306:	29 8c       	ldd	r2, Y+25	; 0x19
     308:	3a 8c       	ldd	r3, Y+26	; 0x1a
     30a:	4b 8c       	ldd	r4, Y+27	; 0x1b
     30c:	5c 8c       	ldd	r5, Y+28	; 0x1c
     30e:	ed 8c       	ldd	r14, Y+29	; 0x1d
     310:	fe 8c       	ldd	r15, Y+30	; 0x1e
     312:	0f 8d       	ldd	r16, Y+31	; 0x1f
     314:	18 a1       	ldd	r17, Y+32	; 0x20
     316:	69 88       	ldd	r6, Y+17	; 0x11
     318:	7a 88       	ldd	r7, Y+18	; 0x12
     31a:	8b 88       	ldd	r8, Y+19	; 0x13
     31c:	9c 88       	ldd	r9, Y+20	; 0x14
     31e:	21 96       	adiw	r28, 0x01	; 1
     320:	6c ae       	std	Y+60, r6	; 0x3c
     322:	7d ae       	std	Y+61, r7	; 0x3d
     324:	8e ae       	std	Y+62, r8	; 0x3e
     326:	9f ae       	std	Y+63, r9	; 0x3f
     328:	21 97       	sbiw	r28, 0x01	; 1
     32a:	6d 88       	ldd	r6, Y+21	; 0x15
     32c:	7e 88       	ldd	r7, Y+22	; 0x16
     32e:	8f 88       	ldd	r8, Y+23	; 0x17
     330:	98 8c       	ldd	r9, Y+24	; 0x18
     332:	e1 14       	cp	r14, r1
     334:	f1 04       	cpc	r15, r1
     336:	01 05       	cpc	r16, r1
     338:	11 05       	cpc	r17, r1
     33a:	09 f0       	breq	.+2      	; 0x33e <__divdi3+0x2ac>
     33c:	d9 c3       	rjmp	.+1970   	; 0xaf0 <__stack+0x291>
     33e:	62 14       	cp	r6, r2
     340:	73 04       	cpc	r7, r3
     342:	84 04       	cpc	r8, r4
     344:	95 04       	cpc	r9, r5
     346:	08 f0       	brcs	.+2      	; 0x34a <__divdi3+0x2b8>
     348:	57 c1       	rjmp	.+686    	; 0x5f8 <__divdi3+0x566>
     34a:	00 e0       	ldi	r16, 0x00	; 0
     34c:	20 16       	cp	r2, r16
     34e:	00 e0       	ldi	r16, 0x00	; 0
     350:	30 06       	cpc	r3, r16
     352:	01 e0       	ldi	r16, 0x01	; 1
     354:	40 06       	cpc	r4, r16
     356:	00 e0       	ldi	r16, 0x00	; 0
     358:	50 06       	cpc	r5, r16
     35a:	88 f4       	brcc	.+34     	; 0x37e <__divdi3+0x2ec>
     35c:	1f ef       	ldi	r17, 0xFF	; 255
     35e:	21 16       	cp	r2, r17
     360:	31 04       	cpc	r3, r1
     362:	41 04       	cpc	r4, r1
     364:	51 04       	cpc	r5, r1
     366:	39 f0       	breq	.+14     	; 0x376 <__divdi3+0x2e4>
     368:	30 f0       	brcs	.+12     	; 0x376 <__divdi3+0x2e4>
     36a:	48 e0       	ldi	r20, 0x08	; 8
     36c:	e4 2e       	mov	r14, r20
     36e:	f1 2c       	mov	r15, r1
     370:	01 2d       	mov	r16, r1
     372:	11 2d       	mov	r17, r1
     374:	18 c0       	rjmp	.+48     	; 0x3a6 <__divdi3+0x314>
     376:	ee 24       	eor	r14, r14
     378:	ff 24       	eor	r15, r15
     37a:	87 01       	movw	r16, r14
     37c:	14 c0       	rjmp	.+40     	; 0x3a6 <__divdi3+0x314>
     37e:	20 e0       	ldi	r18, 0x00	; 0
     380:	22 16       	cp	r2, r18
     382:	20 e0       	ldi	r18, 0x00	; 0
     384:	32 06       	cpc	r3, r18
     386:	20 e0       	ldi	r18, 0x00	; 0
     388:	42 06       	cpc	r4, r18
     38a:	21 e0       	ldi	r18, 0x01	; 1
     38c:	52 06       	cpc	r5, r18
     38e:	30 f0       	brcs	.+12     	; 0x39c <__divdi3+0x30a>
     390:	38 e1       	ldi	r19, 0x18	; 24
     392:	e3 2e       	mov	r14, r19
     394:	f1 2c       	mov	r15, r1
     396:	01 2d       	mov	r16, r1
     398:	11 2d       	mov	r17, r1
     39a:	05 c0       	rjmp	.+10     	; 0x3a6 <__divdi3+0x314>
     39c:	20 e1       	ldi	r18, 0x10	; 16
     39e:	e2 2e       	mov	r14, r18
     3a0:	f1 2c       	mov	r15, r1
     3a2:	01 2d       	mov	r16, r1
     3a4:	11 2d       	mov	r17, r1
     3a6:	d2 01       	movw	r26, r4
     3a8:	c1 01       	movw	r24, r2
     3aa:	0e 2c       	mov	r0, r14
     3ac:	04 c0       	rjmp	.+8      	; 0x3b6 <__divdi3+0x324>
     3ae:	b6 95       	lsr	r27
     3b0:	a7 95       	ror	r26
     3b2:	97 95       	ror	r25
     3b4:	87 95       	ror	r24
     3b6:	0a 94       	dec	r0
     3b8:	d2 f7       	brpl	.-12     	; 0x3ae <__divdi3+0x31c>
     3ba:	8b 59       	subi	r24, 0x9B	; 155
     3bc:	9f 4f       	sbci	r25, 0xFF	; 255
     3be:	dc 01       	movw	r26, r24
     3c0:	2c 91       	ld	r18, X
     3c2:	80 e2       	ldi	r24, 0x20	; 32
     3c4:	90 e0       	ldi	r25, 0x00	; 0
     3c6:	a0 e0       	ldi	r26, 0x00	; 0
     3c8:	b0 e0       	ldi	r27, 0x00	; 0
     3ca:	8e 19       	sub	r24, r14
     3cc:	9f 09       	sbc	r25, r15
     3ce:	a0 0b       	sbc	r26, r16
     3d0:	b1 0b       	sbc	r27, r17
     3d2:	7c 01       	movw	r14, r24
     3d4:	8d 01       	movw	r16, r26
     3d6:	e2 1a       	sub	r14, r18
     3d8:	f1 08       	sbc	r15, r1
     3da:	01 09       	sbc	r16, r1
     3dc:	11 09       	sbc	r17, r1
     3de:	e1 14       	cp	r14, r1
     3e0:	f1 04       	cpc	r15, r1
     3e2:	01 05       	cpc	r16, r1
     3e4:	11 05       	cpc	r17, r1
     3e6:	d1 f1       	breq	.+116    	; 0x45c <__divdi3+0x3ca>
     3e8:	0e 2c       	mov	r0, r14
     3ea:	04 c0       	rjmp	.+8      	; 0x3f4 <__divdi3+0x362>
     3ec:	22 0c       	add	r2, r2
     3ee:	33 1c       	adc	r3, r3
     3f0:	44 1c       	adc	r4, r4
     3f2:	55 1c       	adc	r5, r5
     3f4:	0a 94       	dec	r0
     3f6:	d2 f7       	brpl	.-12     	; 0x3ec <__divdi3+0x35a>
     3f8:	a4 01       	movw	r20, r8
     3fa:	93 01       	movw	r18, r6
     3fc:	0e 2c       	mov	r0, r14
     3fe:	04 c0       	rjmp	.+8      	; 0x408 <__divdi3+0x376>
     400:	22 0f       	add	r18, r18
     402:	33 1f       	adc	r19, r19
     404:	44 1f       	adc	r20, r20
     406:	55 1f       	adc	r21, r21
     408:	0a 94       	dec	r0
     40a:	d2 f7       	brpl	.-12     	; 0x400 <__divdi3+0x36e>
     40c:	80 e2       	ldi	r24, 0x20	; 32
     40e:	90 e0       	ldi	r25, 0x00	; 0
     410:	8e 19       	sub	r24, r14
     412:	9f 09       	sbc	r25, r15
     414:	21 96       	adiw	r28, 0x01	; 1
     416:	6c ac       	ldd	r6, Y+60	; 0x3c
     418:	7d ac       	ldd	r7, Y+61	; 0x3d
     41a:	8e ac       	ldd	r8, Y+62	; 0x3e
     41c:	9f ac       	ldd	r9, Y+63	; 0x3f
     41e:	21 97       	sbiw	r28, 0x01	; 1
     420:	04 c0       	rjmp	.+8      	; 0x42a <__divdi3+0x398>
     422:	96 94       	lsr	r9
     424:	87 94       	ror	r8
     426:	77 94       	ror	r7
     428:	67 94       	ror	r6
     42a:	8a 95       	dec	r24
     42c:	d2 f7       	brpl	.-12     	; 0x422 <__divdi3+0x390>
     42e:	62 2a       	or	r6, r18
     430:	73 2a       	or	r7, r19
     432:	84 2a       	or	r8, r20
     434:	95 2a       	or	r9, r21
     436:	21 96       	adiw	r28, 0x01	; 1
     438:	ac ac       	ldd	r10, Y+60	; 0x3c
     43a:	bd ac       	ldd	r11, Y+61	; 0x3d
     43c:	ce ac       	ldd	r12, Y+62	; 0x3e
     43e:	df ac       	ldd	r13, Y+63	; 0x3f
     440:	21 97       	sbiw	r28, 0x01	; 1
     442:	04 c0       	rjmp	.+8      	; 0x44c <__divdi3+0x3ba>
     444:	aa 0c       	add	r10, r10
     446:	bb 1c       	adc	r11, r11
     448:	cc 1c       	adc	r12, r12
     44a:	dd 1c       	adc	r13, r13
     44c:	ea 94       	dec	r14
     44e:	d2 f7       	brpl	.-12     	; 0x444 <__divdi3+0x3b2>
     450:	21 96       	adiw	r28, 0x01	; 1
     452:	ac ae       	std	Y+60, r10	; 0x3c
     454:	bd ae       	std	Y+61, r11	; 0x3d
     456:	ce ae       	std	Y+62, r12	; 0x3e
     458:	df ae       	std	Y+63, r13	; 0x3f
     45a:	21 97       	sbiw	r28, 0x01	; 1
     45c:	62 01       	movw	r12, r4
     45e:	ee 24       	eor	r14, r14
     460:	ff 24       	eor	r15, r15
     462:	29 96       	adiw	r28, 0x09	; 9
     464:	cc ae       	std	Y+60, r12	; 0x3c
     466:	dd ae       	std	Y+61, r13	; 0x3d
     468:	ee ae       	std	Y+62, r14	; 0x3e
     46a:	ff ae       	std	Y+63, r15	; 0x3f
     46c:	29 97       	sbiw	r28, 0x09	; 9
     46e:	92 01       	movw	r18, r4
     470:	81 01       	movw	r16, r2
     472:	20 70       	andi	r18, 0x00	; 0
     474:	30 70       	andi	r19, 0x00	; 0
     476:	2d 96       	adiw	r28, 0x0d	; 13
     478:	0c af       	std	Y+60, r16	; 0x3c
     47a:	1d af       	std	Y+61, r17	; 0x3d
     47c:	2e af       	std	Y+62, r18	; 0x3e
     47e:	3f af       	std	Y+63, r19	; 0x3f
     480:	2d 97       	sbiw	r28, 0x0d	; 13
     482:	c4 01       	movw	r24, r8
     484:	b3 01       	movw	r22, r6
     486:	a7 01       	movw	r20, r14
     488:	96 01       	movw	r18, r12
     48a:	0e 94 16 22 	call	0x442c	; 0x442c <__udivmodsi4>
     48e:	7b 01       	movw	r14, r22
     490:	8c 01       	movw	r16, r24
     492:	c4 01       	movw	r24, r8
     494:	b3 01       	movw	r22, r6
     496:	29 96       	adiw	r28, 0x09	; 9
     498:	2c ad       	ldd	r18, Y+60	; 0x3c
     49a:	3d ad       	ldd	r19, Y+61	; 0x3d
     49c:	4e ad       	ldd	r20, Y+62	; 0x3e
     49e:	5f ad       	ldd	r21, Y+63	; 0x3f
     4a0:	29 97       	sbiw	r28, 0x09	; 9
     4a2:	0e 94 16 22 	call	0x442c	; 0x442c <__udivmodsi4>
     4a6:	c9 01       	movw	r24, r18
     4a8:	da 01       	movw	r26, r20
     4aa:	3c 01       	movw	r6, r24
     4ac:	4d 01       	movw	r8, r26
     4ae:	c4 01       	movw	r24, r8
     4b0:	b3 01       	movw	r22, r6
     4b2:	2d 96       	adiw	r28, 0x0d	; 13
     4b4:	2c ad       	ldd	r18, Y+60	; 0x3c
     4b6:	3d ad       	ldd	r19, Y+61	; 0x3d
     4b8:	4e ad       	ldd	r20, Y+62	; 0x3e
     4ba:	5f ad       	ldd	r21, Y+63	; 0x3f
     4bc:	2d 97       	sbiw	r28, 0x0d	; 13
     4be:	0e 94 f7 21 	call	0x43ee	; 0x43ee <__mulsi3>
     4c2:	9b 01       	movw	r18, r22
     4c4:	ac 01       	movw	r20, r24
     4c6:	87 01       	movw	r16, r14
     4c8:	ff 24       	eor	r15, r15
     4ca:	ee 24       	eor	r14, r14
     4cc:	21 96       	adiw	r28, 0x01	; 1
     4ce:	ac ac       	ldd	r10, Y+60	; 0x3c
     4d0:	bd ac       	ldd	r11, Y+61	; 0x3d
     4d2:	ce ac       	ldd	r12, Y+62	; 0x3e
     4d4:	df ac       	ldd	r13, Y+63	; 0x3f
     4d6:	21 97       	sbiw	r28, 0x01	; 1
     4d8:	c6 01       	movw	r24, r12
     4da:	aa 27       	eor	r26, r26
     4dc:	bb 27       	eor	r27, r27
     4de:	57 01       	movw	r10, r14
     4e0:	68 01       	movw	r12, r16
     4e2:	a8 2a       	or	r10, r24
     4e4:	b9 2a       	or	r11, r25
     4e6:	ca 2a       	or	r12, r26
     4e8:	db 2a       	or	r13, r27
     4ea:	a2 16       	cp	r10, r18
     4ec:	b3 06       	cpc	r11, r19
     4ee:	c4 06       	cpc	r12, r20
     4f0:	d5 06       	cpc	r13, r21
     4f2:	e0 f4       	brcc	.+56     	; 0x52c <__divdi3+0x49a>
     4f4:	08 94       	sec
     4f6:	61 08       	sbc	r6, r1
     4f8:	71 08       	sbc	r7, r1
     4fa:	81 08       	sbc	r8, r1
     4fc:	91 08       	sbc	r9, r1
     4fe:	a2 0c       	add	r10, r2
     500:	b3 1c       	adc	r11, r3
     502:	c4 1c       	adc	r12, r4
     504:	d5 1c       	adc	r13, r5
     506:	a2 14       	cp	r10, r2
     508:	b3 04       	cpc	r11, r3
     50a:	c4 04       	cpc	r12, r4
     50c:	d5 04       	cpc	r13, r5
     50e:	70 f0       	brcs	.+28     	; 0x52c <__divdi3+0x49a>
     510:	a2 16       	cp	r10, r18
     512:	b3 06       	cpc	r11, r19
     514:	c4 06       	cpc	r12, r20
     516:	d5 06       	cpc	r13, r21
     518:	48 f4       	brcc	.+18     	; 0x52c <__divdi3+0x49a>
     51a:	08 94       	sec
     51c:	61 08       	sbc	r6, r1
     51e:	71 08       	sbc	r7, r1
     520:	81 08       	sbc	r8, r1
     522:	91 08       	sbc	r9, r1
     524:	a2 0c       	add	r10, r2
     526:	b3 1c       	adc	r11, r3
     528:	c4 1c       	adc	r12, r4
     52a:	d5 1c       	adc	r13, r5
     52c:	a2 1a       	sub	r10, r18
     52e:	b3 0a       	sbc	r11, r19
     530:	c4 0a       	sbc	r12, r20
     532:	d5 0a       	sbc	r13, r21
     534:	c6 01       	movw	r24, r12
     536:	b5 01       	movw	r22, r10
     538:	29 96       	adiw	r28, 0x09	; 9
     53a:	2c ad       	ldd	r18, Y+60	; 0x3c
     53c:	3d ad       	ldd	r19, Y+61	; 0x3d
     53e:	4e ad       	ldd	r20, Y+62	; 0x3e
     540:	5f ad       	ldd	r21, Y+63	; 0x3f
     542:	29 97       	sbiw	r28, 0x09	; 9
     544:	0e 94 16 22 	call	0x442c	; 0x442c <__udivmodsi4>
     548:	7b 01       	movw	r14, r22
     54a:	8c 01       	movw	r16, r24
     54c:	c6 01       	movw	r24, r12
     54e:	b5 01       	movw	r22, r10
     550:	29 96       	adiw	r28, 0x09	; 9
     552:	2c ad       	ldd	r18, Y+60	; 0x3c
     554:	3d ad       	ldd	r19, Y+61	; 0x3d
     556:	4e ad       	ldd	r20, Y+62	; 0x3e
     558:	5f ad       	ldd	r21, Y+63	; 0x3f
     55a:	29 97       	sbiw	r28, 0x09	; 9
     55c:	0e 94 16 22 	call	0x442c	; 0x442c <__udivmodsi4>
     560:	c9 01       	movw	r24, r18
     562:	da 01       	movw	r26, r20
     564:	5c 01       	movw	r10, r24
     566:	6d 01       	movw	r12, r26
     568:	c6 01       	movw	r24, r12
     56a:	b5 01       	movw	r22, r10
     56c:	2d 96       	adiw	r28, 0x0d	; 13
     56e:	2c ad       	ldd	r18, Y+60	; 0x3c
     570:	3d ad       	ldd	r19, Y+61	; 0x3d
     572:	4e ad       	ldd	r20, Y+62	; 0x3e
     574:	5f ad       	ldd	r21, Y+63	; 0x3f
     576:	2d 97       	sbiw	r28, 0x0d	; 13
     578:	0e 94 f7 21 	call	0x43ee	; 0x43ee <__mulsi3>
     57c:	9b 01       	movw	r18, r22
     57e:	ac 01       	movw	r20, r24
     580:	87 01       	movw	r16, r14
     582:	ff 24       	eor	r15, r15
     584:	ee 24       	eor	r14, r14
     586:	21 96       	adiw	r28, 0x01	; 1
     588:	8c ad       	ldd	r24, Y+60	; 0x3c
     58a:	9d ad       	ldd	r25, Y+61	; 0x3d
     58c:	ae ad       	ldd	r26, Y+62	; 0x3e
     58e:	bf ad       	ldd	r27, Y+63	; 0x3f
     590:	21 97       	sbiw	r28, 0x01	; 1
     592:	a0 70       	andi	r26, 0x00	; 0
     594:	b0 70       	andi	r27, 0x00	; 0
     596:	e8 2a       	or	r14, r24
     598:	f9 2a       	or	r15, r25
     59a:	0a 2b       	or	r16, r26
     59c:	1b 2b       	or	r17, r27
     59e:	e2 16       	cp	r14, r18
     5a0:	f3 06       	cpc	r15, r19
     5a2:	04 07       	cpc	r16, r20
     5a4:	15 07       	cpc	r17, r21
     5a6:	c0 f4       	brcc	.+48     	; 0x5d8 <__divdi3+0x546>
     5a8:	08 94       	sec
     5aa:	a1 08       	sbc	r10, r1
     5ac:	b1 08       	sbc	r11, r1
     5ae:	c1 08       	sbc	r12, r1
     5b0:	d1 08       	sbc	r13, r1
     5b2:	e2 0c       	add	r14, r2
     5b4:	f3 1c       	adc	r15, r3
     5b6:	04 1d       	adc	r16, r4
     5b8:	15 1d       	adc	r17, r5
     5ba:	e2 14       	cp	r14, r2
     5bc:	f3 04       	cpc	r15, r3
     5be:	04 05       	cpc	r16, r4
     5c0:	15 05       	cpc	r17, r5
     5c2:	50 f0       	brcs	.+20     	; 0x5d8 <__divdi3+0x546>
     5c4:	e2 16       	cp	r14, r18
     5c6:	f3 06       	cpc	r15, r19
     5c8:	04 07       	cpc	r16, r20
     5ca:	15 07       	cpc	r17, r21
     5cc:	28 f4       	brcc	.+10     	; 0x5d8 <__divdi3+0x546>
     5ce:	08 94       	sec
     5d0:	a1 08       	sbc	r10, r1
     5d2:	b1 08       	sbc	r11, r1
     5d4:	c1 08       	sbc	r12, r1
     5d6:	d1 08       	sbc	r13, r1
     5d8:	d3 01       	movw	r26, r6
     5da:	99 27       	eor	r25, r25
     5dc:	88 27       	eor	r24, r24
     5de:	86 01       	movw	r16, r12
     5e0:	75 01       	movw	r14, r10
     5e2:	e8 2a       	or	r14, r24
     5e4:	f9 2a       	or	r15, r25
     5e6:	0a 2b       	or	r16, r26
     5e8:	1b 2b       	or	r17, r27
     5ea:	25 96       	adiw	r28, 0x05	; 5
     5ec:	ec ae       	std	Y+60, r14	; 0x3c
     5ee:	fd ae       	std	Y+61, r15	; 0x3d
     5f0:	0e af       	std	Y+62, r16	; 0x3e
     5f2:	1f af       	std	Y+63, r17	; 0x3f
     5f4:	25 97       	sbiw	r28, 0x05	; 5
     5f6:	eb c4       	rjmp	.+2518   	; 0xfce <__stack+0x76f>
     5f8:	21 14       	cp	r2, r1
     5fa:	31 04       	cpc	r3, r1
     5fc:	41 04       	cpc	r4, r1
     5fe:	51 04       	cpc	r5, r1
     600:	71 f4       	brne	.+28     	; 0x61e <__divdi3+0x58c>
     602:	61 e0       	ldi	r22, 0x01	; 1
     604:	70 e0       	ldi	r23, 0x00	; 0
     606:	80 e0       	ldi	r24, 0x00	; 0
     608:	90 e0       	ldi	r25, 0x00	; 0
     60a:	20 e0       	ldi	r18, 0x00	; 0
     60c:	30 e0       	ldi	r19, 0x00	; 0
     60e:	40 e0       	ldi	r20, 0x00	; 0
     610:	50 e0       	ldi	r21, 0x00	; 0
     612:	0e 94 16 22 	call	0x442c	; 0x442c <__udivmodsi4>
     616:	c9 01       	movw	r24, r18
     618:	da 01       	movw	r26, r20
     61a:	1c 01       	movw	r2, r24
     61c:	2d 01       	movw	r4, r26
     61e:	00 e0       	ldi	r16, 0x00	; 0
     620:	20 16       	cp	r2, r16
     622:	00 e0       	ldi	r16, 0x00	; 0
     624:	30 06       	cpc	r3, r16
     626:	01 e0       	ldi	r16, 0x01	; 1
     628:	40 06       	cpc	r4, r16
     62a:	00 e0       	ldi	r16, 0x00	; 0
     62c:	50 06       	cpc	r5, r16
     62e:	88 f4       	brcc	.+34     	; 0x652 <__divdi3+0x5c0>
     630:	1f ef       	ldi	r17, 0xFF	; 255
     632:	21 16       	cp	r2, r17
     634:	31 04       	cpc	r3, r1
     636:	41 04       	cpc	r4, r1
     638:	51 04       	cpc	r5, r1
     63a:	31 f0       	breq	.+12     	; 0x648 <__divdi3+0x5b6>
     63c:	28 f0       	brcs	.+10     	; 0x648 <__divdi3+0x5b6>
     63e:	48 e0       	ldi	r20, 0x08	; 8
     640:	50 e0       	ldi	r21, 0x00	; 0
     642:	60 e0       	ldi	r22, 0x00	; 0
     644:	70 e0       	ldi	r23, 0x00	; 0
     646:	17 c0       	rjmp	.+46     	; 0x676 <__divdi3+0x5e4>
     648:	40 e0       	ldi	r20, 0x00	; 0
     64a:	50 e0       	ldi	r21, 0x00	; 0
     64c:	60 e0       	ldi	r22, 0x00	; 0
     64e:	70 e0       	ldi	r23, 0x00	; 0
     650:	12 c0       	rjmp	.+36     	; 0x676 <__divdi3+0x5e4>
     652:	20 e0       	ldi	r18, 0x00	; 0
     654:	22 16       	cp	r2, r18
     656:	20 e0       	ldi	r18, 0x00	; 0
     658:	32 06       	cpc	r3, r18
     65a:	20 e0       	ldi	r18, 0x00	; 0
     65c:	42 06       	cpc	r4, r18
     65e:	21 e0       	ldi	r18, 0x01	; 1
     660:	52 06       	cpc	r5, r18
     662:	28 f0       	brcs	.+10     	; 0x66e <__divdi3+0x5dc>
     664:	48 e1       	ldi	r20, 0x18	; 24
     666:	50 e0       	ldi	r21, 0x00	; 0
     668:	60 e0       	ldi	r22, 0x00	; 0
     66a:	70 e0       	ldi	r23, 0x00	; 0
     66c:	04 c0       	rjmp	.+8      	; 0x676 <__divdi3+0x5e4>
     66e:	40 e1       	ldi	r20, 0x10	; 16
     670:	50 e0       	ldi	r21, 0x00	; 0
     672:	60 e0       	ldi	r22, 0x00	; 0
     674:	70 e0       	ldi	r23, 0x00	; 0
     676:	d2 01       	movw	r26, r4
     678:	c1 01       	movw	r24, r2
     67a:	04 2e       	mov	r0, r20
     67c:	04 c0       	rjmp	.+8      	; 0x686 <__divdi3+0x5f4>
     67e:	b6 95       	lsr	r27
     680:	a7 95       	ror	r26
     682:	97 95       	ror	r25
     684:	87 95       	ror	r24
     686:	0a 94       	dec	r0
     688:	d2 f7       	brpl	.-12     	; 0x67e <__divdi3+0x5ec>
     68a:	8b 59       	subi	r24, 0x9B	; 155
     68c:	9f 4f       	sbci	r25, 0xFF	; 255
     68e:	dc 01       	movw	r26, r24
     690:	2c 91       	ld	r18, X
     692:	e0 e2       	ldi	r30, 0x20	; 32
     694:	ee 2e       	mov	r14, r30
     696:	f1 2c       	mov	r15, r1
     698:	01 2d       	mov	r16, r1
     69a:	11 2d       	mov	r17, r1
     69c:	d8 01       	movw	r26, r16
     69e:	c7 01       	movw	r24, r14
     6a0:	84 1b       	sub	r24, r20
     6a2:	95 0b       	sbc	r25, r21
     6a4:	a6 0b       	sbc	r26, r22
     6a6:	b7 0b       	sbc	r27, r23
     6a8:	82 1b       	sub	r24, r18
     6aa:	91 09       	sbc	r25, r1
     6ac:	a1 09       	sbc	r26, r1
     6ae:	b1 09       	sbc	r27, r1
     6b0:	00 97       	sbiw	r24, 0x00	; 0
     6b2:	a1 05       	cpc	r26, r1
     6b4:	b1 05       	cpc	r27, r1
     6b6:	61 f4       	brne	.+24     	; 0x6d0 <__divdi3+0x63e>
     6b8:	64 01       	movw	r12, r8
     6ba:	53 01       	movw	r10, r6
     6bc:	a2 18       	sub	r10, r2
     6be:	b3 08       	sbc	r11, r3
     6c0:	c4 08       	sbc	r12, r4
     6c2:	d5 08       	sbc	r13, r5
     6c4:	31 e0       	ldi	r19, 0x01	; 1
     6c6:	63 2e       	mov	r6, r19
     6c8:	71 2c       	mov	r7, r1
     6ca:	81 2c       	mov	r8, r1
     6cc:	91 2c       	mov	r9, r1
     6ce:	24 c1       	rjmp	.+584    	; 0x918 <__stack+0xb9>
     6d0:	e3 96       	adiw	r28, 0x33	; 51
     6d2:	8f af       	std	Y+63, r24	; 0x3f
     6d4:	e3 97       	sbiw	r28, 0x33	; 51
     6d6:	08 2e       	mov	r0, r24
     6d8:	04 c0       	rjmp	.+8      	; 0x6e2 <__divdi3+0x650>
     6da:	22 0c       	add	r2, r2
     6dc:	33 1c       	adc	r3, r3
     6de:	44 1c       	adc	r4, r4
     6e0:	55 1c       	adc	r5, r5
     6e2:	0a 94       	dec	r0
     6e4:	d2 f7       	brpl	.-12     	; 0x6da <__divdi3+0x648>
     6e6:	ee 2d       	mov	r30, r14
     6e8:	e8 1b       	sub	r30, r24
     6ea:	64 01       	movw	r12, r8
     6ec:	53 01       	movw	r10, r6
     6ee:	0e 2e       	mov	r0, r30
     6f0:	04 c0       	rjmp	.+8      	; 0x6fa <__divdi3+0x668>
     6f2:	d6 94       	lsr	r13
     6f4:	c7 94       	ror	r12
     6f6:	b7 94       	ror	r11
     6f8:	a7 94       	ror	r10
     6fa:	0a 94       	dec	r0
     6fc:	d2 f7       	brpl	.-12     	; 0x6f2 <__divdi3+0x660>
     6fe:	a4 01       	movw	r20, r8
     700:	93 01       	movw	r18, r6
     702:	e3 96       	adiw	r28, 0x33	; 51
     704:	0f ac       	ldd	r0, Y+63	; 0x3f
     706:	e3 97       	sbiw	r28, 0x33	; 51
     708:	04 c0       	rjmp	.+8      	; 0x712 <__divdi3+0x680>
     70a:	22 0f       	add	r18, r18
     70c:	33 1f       	adc	r19, r19
     70e:	44 1f       	adc	r20, r20
     710:	55 1f       	adc	r21, r21
     712:	0a 94       	dec	r0
     714:	d2 f7       	brpl	.-12     	; 0x70a <__divdi3+0x678>
     716:	21 96       	adiw	r28, 0x01	; 1
     718:	6c ac       	ldd	r6, Y+60	; 0x3c
     71a:	7d ac       	ldd	r7, Y+61	; 0x3d
     71c:	8e ac       	ldd	r8, Y+62	; 0x3e
     71e:	9f ac       	ldd	r9, Y+63	; 0x3f
     720:	21 97       	sbiw	r28, 0x01	; 1
     722:	0e 2e       	mov	r0, r30
     724:	04 c0       	rjmp	.+8      	; 0x72e <__divdi3+0x69c>
     726:	96 94       	lsr	r9
     728:	87 94       	ror	r8
     72a:	77 94       	ror	r7
     72c:	67 94       	ror	r6
     72e:	0a 94       	dec	r0
     730:	d2 f7       	brpl	.-12     	; 0x726 <__divdi3+0x694>
     732:	84 01       	movw	r16, r8
     734:	73 01       	movw	r14, r6
     736:	e2 2a       	or	r14, r18
     738:	f3 2a       	or	r15, r19
     73a:	04 2b       	or	r16, r20
     73c:	15 2b       	or	r17, r21
     73e:	e9 ae       	std	Y+57, r14	; 0x39
     740:	fa ae       	std	Y+58, r15	; 0x3a
     742:	0b af       	std	Y+59, r16	; 0x3b
     744:	1c af       	std	Y+60, r17	; 0x3c
     746:	32 01       	movw	r6, r4
     748:	88 24       	eor	r8, r8
     74a:	99 24       	eor	r9, r9
     74c:	92 01       	movw	r18, r4
     74e:	81 01       	movw	r16, r2
     750:	20 70       	andi	r18, 0x00	; 0
     752:	30 70       	andi	r19, 0x00	; 0
     754:	61 96       	adiw	r28, 0x11	; 17
     756:	0c af       	std	Y+60, r16	; 0x3c
     758:	1d af       	std	Y+61, r17	; 0x3d
     75a:	2e af       	std	Y+62, r18	; 0x3e
     75c:	3f af       	std	Y+63, r19	; 0x3f
     75e:	61 97       	sbiw	r28, 0x11	; 17
     760:	c6 01       	movw	r24, r12
     762:	b5 01       	movw	r22, r10
     764:	a4 01       	movw	r20, r8
     766:	93 01       	movw	r18, r6
     768:	0e 94 16 22 	call	0x442c	; 0x442c <__udivmodsi4>
     76c:	7b 01       	movw	r14, r22
     76e:	8c 01       	movw	r16, r24
     770:	c6 01       	movw	r24, r12
     772:	b5 01       	movw	r22, r10
     774:	a4 01       	movw	r20, r8
     776:	93 01       	movw	r18, r6
     778:	0e 94 16 22 	call	0x442c	; 0x442c <__udivmodsi4>
     77c:	c9 01       	movw	r24, r18
     77e:	da 01       	movw	r26, r20
     780:	65 96       	adiw	r28, 0x15	; 21
     782:	8c af       	std	Y+60, r24	; 0x3c
     784:	9d af       	std	Y+61, r25	; 0x3d
     786:	ae af       	std	Y+62, r26	; 0x3e
     788:	bf af       	std	Y+63, r27	; 0x3f
     78a:	65 97       	sbiw	r28, 0x15	; 21
     78c:	bc 01       	movw	r22, r24
     78e:	cd 01       	movw	r24, r26
     790:	61 96       	adiw	r28, 0x11	; 17
     792:	2c ad       	ldd	r18, Y+60	; 0x3c
     794:	3d ad       	ldd	r19, Y+61	; 0x3d
     796:	4e ad       	ldd	r20, Y+62	; 0x3e
     798:	5f ad       	ldd	r21, Y+63	; 0x3f
     79a:	61 97       	sbiw	r28, 0x11	; 17
     79c:	0e 94 f7 21 	call	0x43ee	; 0x43ee <__mulsi3>
     7a0:	9b 01       	movw	r18, r22
     7a2:	ac 01       	movw	r20, r24
     7a4:	87 01       	movw	r16, r14
     7a6:	ff 24       	eor	r15, r15
     7a8:	ee 24       	eor	r14, r14
     7aa:	a9 ac       	ldd	r10, Y+57	; 0x39
     7ac:	ba ac       	ldd	r11, Y+58	; 0x3a
     7ae:	cb ac       	ldd	r12, Y+59	; 0x3b
     7b0:	dc ac       	ldd	r13, Y+60	; 0x3c
     7b2:	c6 01       	movw	r24, r12
     7b4:	aa 27       	eor	r26, r26
     7b6:	bb 27       	eor	r27, r27
     7b8:	5c 01       	movw	r10, r24
     7ba:	6d 01       	movw	r12, r26
     7bc:	ae 28       	or	r10, r14
     7be:	bf 28       	or	r11, r15
     7c0:	c0 2a       	or	r12, r16
     7c2:	d1 2a       	or	r13, r17
     7c4:	a2 16       	cp	r10, r18
     7c6:	b3 06       	cpc	r11, r19
     7c8:	c4 06       	cpc	r12, r20
     7ca:	d5 06       	cpc	r13, r21
     7cc:	60 f5       	brcc	.+88     	; 0x826 <__divdi3+0x794>
     7ce:	65 96       	adiw	r28, 0x15	; 21
     7d0:	6c ad       	ldd	r22, Y+60	; 0x3c
     7d2:	7d ad       	ldd	r23, Y+61	; 0x3d
     7d4:	8e ad       	ldd	r24, Y+62	; 0x3e
     7d6:	9f ad       	ldd	r25, Y+63	; 0x3f
     7d8:	65 97       	sbiw	r28, 0x15	; 21
     7da:	61 50       	subi	r22, 0x01	; 1
     7dc:	70 40       	sbci	r23, 0x00	; 0
     7de:	80 40       	sbci	r24, 0x00	; 0
     7e0:	90 40       	sbci	r25, 0x00	; 0
     7e2:	65 96       	adiw	r28, 0x15	; 21
     7e4:	6c af       	std	Y+60, r22	; 0x3c
     7e6:	7d af       	std	Y+61, r23	; 0x3d
     7e8:	8e af       	std	Y+62, r24	; 0x3e
     7ea:	9f af       	std	Y+63, r25	; 0x3f
     7ec:	65 97       	sbiw	r28, 0x15	; 21
     7ee:	a2 0c       	add	r10, r2
     7f0:	b3 1c       	adc	r11, r3
     7f2:	c4 1c       	adc	r12, r4
     7f4:	d5 1c       	adc	r13, r5
     7f6:	a2 14       	cp	r10, r2
     7f8:	b3 04       	cpc	r11, r3
     7fa:	c4 04       	cpc	r12, r4
     7fc:	d5 04       	cpc	r13, r5
     7fe:	98 f0       	brcs	.+38     	; 0x826 <__divdi3+0x794>
     800:	a2 16       	cp	r10, r18
     802:	b3 06       	cpc	r11, r19
     804:	c4 06       	cpc	r12, r20
     806:	d5 06       	cpc	r13, r21
     808:	70 f4       	brcc	.+28     	; 0x826 <__divdi3+0x794>
     80a:	61 50       	subi	r22, 0x01	; 1
     80c:	70 40       	sbci	r23, 0x00	; 0
     80e:	80 40       	sbci	r24, 0x00	; 0
     810:	90 40       	sbci	r25, 0x00	; 0
     812:	65 96       	adiw	r28, 0x15	; 21
     814:	6c af       	std	Y+60, r22	; 0x3c
     816:	7d af       	std	Y+61, r23	; 0x3d
     818:	8e af       	std	Y+62, r24	; 0x3e
     81a:	9f af       	std	Y+63, r25	; 0x3f
     81c:	65 97       	sbiw	r28, 0x15	; 21
     81e:	a2 0c       	add	r10, r2
     820:	b3 1c       	adc	r11, r3
     822:	c4 1c       	adc	r12, r4
     824:	d5 1c       	adc	r13, r5
     826:	a2 1a       	sub	r10, r18
     828:	b3 0a       	sbc	r11, r19
     82a:	c4 0a       	sbc	r12, r20
     82c:	d5 0a       	sbc	r13, r21
     82e:	c6 01       	movw	r24, r12
     830:	b5 01       	movw	r22, r10
     832:	a4 01       	movw	r20, r8
     834:	93 01       	movw	r18, r6
     836:	0e 94 16 22 	call	0x442c	; 0x442c <__udivmodsi4>
     83a:	7b 01       	movw	r14, r22
     83c:	8c 01       	movw	r16, r24
     83e:	c6 01       	movw	r24, r12
     840:	b5 01       	movw	r22, r10
     842:	a4 01       	movw	r20, r8
     844:	93 01       	movw	r18, r6
     846:	0e 94 16 22 	call	0x442c	; 0x442c <__udivmodsi4>
     84a:	c9 01       	movw	r24, r18
     84c:	da 01       	movw	r26, r20
     84e:	3c 01       	movw	r6, r24
     850:	4d 01       	movw	r8, r26
     852:	c4 01       	movw	r24, r8
     854:	b3 01       	movw	r22, r6
     856:	61 96       	adiw	r28, 0x11	; 17
     858:	2c ad       	ldd	r18, Y+60	; 0x3c
     85a:	3d ad       	ldd	r19, Y+61	; 0x3d
     85c:	4e ad       	ldd	r20, Y+62	; 0x3e
     85e:	5f ad       	ldd	r21, Y+63	; 0x3f
     860:	61 97       	sbiw	r28, 0x11	; 17
     862:	0e 94 f7 21 	call	0x43ee	; 0x43ee <__mulsi3>
     866:	9b 01       	movw	r18, r22
     868:	ac 01       	movw	r20, r24
     86a:	87 01       	movw	r16, r14
     86c:	ff 24       	eor	r15, r15
     86e:	ee 24       	eor	r14, r14
     870:	89 ad       	ldd	r24, Y+57	; 0x39
     872:	9a ad       	ldd	r25, Y+58	; 0x3a
     874:	ab ad       	ldd	r26, Y+59	; 0x3b
     876:	bc ad       	ldd	r27, Y+60	; 0x3c
     878:	a0 70       	andi	r26, 0x00	; 0
     87a:	b0 70       	andi	r27, 0x00	; 0
     87c:	57 01       	movw	r10, r14
     87e:	68 01       	movw	r12, r16
     880:	a8 2a       	or	r10, r24
     882:	b9 2a       	or	r11, r25
     884:	ca 2a       	or	r12, r26
     886:	db 2a       	or	r13, r27
     888:	a2 16       	cp	r10, r18
     88a:	b3 06       	cpc	r11, r19
     88c:	c4 06       	cpc	r12, r20
     88e:	d5 06       	cpc	r13, r21
     890:	e0 f4       	brcc	.+56     	; 0x8ca <__stack+0x6b>
     892:	08 94       	sec
     894:	61 08       	sbc	r6, r1
     896:	71 08       	sbc	r7, r1
     898:	81 08       	sbc	r8, r1
     89a:	91 08       	sbc	r9, r1
     89c:	a2 0c       	add	r10, r2
     89e:	b3 1c       	adc	r11, r3
     8a0:	c4 1c       	adc	r12, r4
     8a2:	d5 1c       	adc	r13, r5
     8a4:	a2 14       	cp	r10, r2
     8a6:	b3 04       	cpc	r11, r3
     8a8:	c4 04       	cpc	r12, r4
     8aa:	d5 04       	cpc	r13, r5
     8ac:	70 f0       	brcs	.+28     	; 0x8ca <__stack+0x6b>
     8ae:	a2 16       	cp	r10, r18
     8b0:	b3 06       	cpc	r11, r19
     8b2:	c4 06       	cpc	r12, r20
     8b4:	d5 06       	cpc	r13, r21
     8b6:	48 f4       	brcc	.+18     	; 0x8ca <__stack+0x6b>
     8b8:	08 94       	sec
     8ba:	61 08       	sbc	r6, r1
     8bc:	71 08       	sbc	r7, r1
     8be:	81 08       	sbc	r8, r1
     8c0:	91 08       	sbc	r9, r1
     8c2:	a2 0c       	add	r10, r2
     8c4:	b3 1c       	adc	r11, r3
     8c6:	c4 1c       	adc	r12, r4
     8c8:	d5 1c       	adc	r13, r5
     8ca:	21 96       	adiw	r28, 0x01	; 1
     8cc:	8c ad       	ldd	r24, Y+60	; 0x3c
     8ce:	9d ad       	ldd	r25, Y+61	; 0x3d
     8d0:	ae ad       	ldd	r26, Y+62	; 0x3e
     8d2:	bf ad       	ldd	r27, Y+63	; 0x3f
     8d4:	21 97       	sbiw	r28, 0x01	; 1
     8d6:	e3 96       	adiw	r28, 0x33	; 51
     8d8:	0f ac       	ldd	r0, Y+63	; 0x3f
     8da:	e3 97       	sbiw	r28, 0x33	; 51
     8dc:	04 c0       	rjmp	.+8      	; 0x8e6 <__stack+0x87>
     8de:	88 0f       	add	r24, r24
     8e0:	99 1f       	adc	r25, r25
     8e2:	aa 1f       	adc	r26, r26
     8e4:	bb 1f       	adc	r27, r27
     8e6:	0a 94       	dec	r0
     8e8:	d2 f7       	brpl	.-12     	; 0x8de <__stack+0x7f>
     8ea:	21 96       	adiw	r28, 0x01	; 1
     8ec:	8c af       	std	Y+60, r24	; 0x3c
     8ee:	9d af       	std	Y+61, r25	; 0x3d
     8f0:	ae af       	std	Y+62, r26	; 0x3e
     8f2:	bf af       	std	Y+63, r27	; 0x3f
     8f4:	21 97       	sbiw	r28, 0x01	; 1
     8f6:	a2 1a       	sub	r10, r18
     8f8:	b3 0a       	sbc	r11, r19
     8fa:	c4 0a       	sbc	r12, r20
     8fc:	d5 0a       	sbc	r13, r21
     8fe:	65 96       	adiw	r28, 0x15	; 21
     900:	ec ac       	ldd	r14, Y+60	; 0x3c
     902:	fd ac       	ldd	r15, Y+61	; 0x3d
     904:	0e ad       	ldd	r16, Y+62	; 0x3e
     906:	1f ad       	ldd	r17, Y+63	; 0x3f
     908:	65 97       	sbiw	r28, 0x15	; 21
     90a:	d7 01       	movw	r26, r14
     90c:	99 27       	eor	r25, r25
     90e:	88 27       	eor	r24, r24
     910:	68 2a       	or	r6, r24
     912:	79 2a       	or	r7, r25
     914:	8a 2a       	or	r8, r26
     916:	9b 2a       	or	r9, r27
     918:	82 01       	movw	r16, r4
     91a:	22 27       	eor	r18, r18
     91c:	33 27       	eor	r19, r19
     91e:	69 96       	adiw	r28, 0x19	; 25
     920:	0c af       	std	Y+60, r16	; 0x3c
     922:	1d af       	std	Y+61, r17	; 0x3d
     924:	2e af       	std	Y+62, r18	; 0x3e
     926:	3f af       	std	Y+63, r19	; 0x3f
     928:	69 97       	sbiw	r28, 0x19	; 25
     92a:	a2 01       	movw	r20, r4
     92c:	91 01       	movw	r18, r2
     92e:	40 70       	andi	r20, 0x00	; 0
     930:	50 70       	andi	r21, 0x00	; 0
     932:	6d 96       	adiw	r28, 0x1d	; 29
     934:	2c af       	std	Y+60, r18	; 0x3c
     936:	3d af       	std	Y+61, r19	; 0x3d
     938:	4e af       	std	Y+62, r20	; 0x3e
     93a:	5f af       	std	Y+63, r21	; 0x3f
     93c:	6d 97       	sbiw	r28, 0x1d	; 29
     93e:	c6 01       	movw	r24, r12
     940:	b5 01       	movw	r22, r10
     942:	69 96       	adiw	r28, 0x19	; 25
     944:	2c ad       	ldd	r18, Y+60	; 0x3c
     946:	3d ad       	ldd	r19, Y+61	; 0x3d
     948:	4e ad       	ldd	r20, Y+62	; 0x3e
     94a:	5f ad       	ldd	r21, Y+63	; 0x3f
     94c:	69 97       	sbiw	r28, 0x19	; 25
     94e:	0e 94 16 22 	call	0x442c	; 0x442c <__udivmodsi4>
     952:	7b 01       	movw	r14, r22
     954:	8c 01       	movw	r16, r24
     956:	c6 01       	movw	r24, r12
     958:	b5 01       	movw	r22, r10
     95a:	69 96       	adiw	r28, 0x19	; 25
     95c:	2c ad       	ldd	r18, Y+60	; 0x3c
     95e:	3d ad       	ldd	r19, Y+61	; 0x3d
     960:	4e ad       	ldd	r20, Y+62	; 0x3e
     962:	5f ad       	ldd	r21, Y+63	; 0x3f
     964:	69 97       	sbiw	r28, 0x19	; 25
     966:	0e 94 16 22 	call	0x442c	; 0x442c <__udivmodsi4>
     96a:	c9 01       	movw	r24, r18
     96c:	da 01       	movw	r26, r20
     96e:	a1 96       	adiw	r28, 0x21	; 33
     970:	8c af       	std	Y+60, r24	; 0x3c
     972:	9d af       	std	Y+61, r25	; 0x3d
     974:	ae af       	std	Y+62, r26	; 0x3e
     976:	bf af       	std	Y+63, r27	; 0x3f
     978:	a1 97       	sbiw	r28, 0x21	; 33
     97a:	bc 01       	movw	r22, r24
     97c:	cd 01       	movw	r24, r26
     97e:	6d 96       	adiw	r28, 0x1d	; 29
     980:	2c ad       	ldd	r18, Y+60	; 0x3c
     982:	3d ad       	ldd	r19, Y+61	; 0x3d
     984:	4e ad       	ldd	r20, Y+62	; 0x3e
     986:	5f ad       	ldd	r21, Y+63	; 0x3f
     988:	6d 97       	sbiw	r28, 0x1d	; 29
     98a:	0e 94 f7 21 	call	0x43ee	; 0x43ee <__mulsi3>
     98e:	9b 01       	movw	r18, r22
     990:	ac 01       	movw	r20, r24
     992:	87 01       	movw	r16, r14
     994:	ff 24       	eor	r15, r15
     996:	ee 24       	eor	r14, r14
     998:	21 96       	adiw	r28, 0x01	; 1
     99a:	ac ac       	ldd	r10, Y+60	; 0x3c
     99c:	bd ac       	ldd	r11, Y+61	; 0x3d
     99e:	ce ac       	ldd	r12, Y+62	; 0x3e
     9a0:	df ac       	ldd	r13, Y+63	; 0x3f
     9a2:	21 97       	sbiw	r28, 0x01	; 1
     9a4:	c6 01       	movw	r24, r12
     9a6:	aa 27       	eor	r26, r26
     9a8:	bb 27       	eor	r27, r27
     9aa:	57 01       	movw	r10, r14
     9ac:	68 01       	movw	r12, r16
     9ae:	a8 2a       	or	r10, r24
     9b0:	b9 2a       	or	r11, r25
     9b2:	ca 2a       	or	r12, r26
     9b4:	db 2a       	or	r13, r27
     9b6:	a2 16       	cp	r10, r18
     9b8:	b3 06       	cpc	r11, r19
     9ba:	c4 06       	cpc	r12, r20
     9bc:	d5 06       	cpc	r13, r21
     9be:	60 f5       	brcc	.+88     	; 0xa18 <__stack+0x1b9>
     9c0:	a1 96       	adiw	r28, 0x21	; 33
     9c2:	6c ad       	ldd	r22, Y+60	; 0x3c
     9c4:	7d ad       	ldd	r23, Y+61	; 0x3d
     9c6:	8e ad       	ldd	r24, Y+62	; 0x3e
     9c8:	9f ad       	ldd	r25, Y+63	; 0x3f
     9ca:	a1 97       	sbiw	r28, 0x21	; 33
     9cc:	61 50       	subi	r22, 0x01	; 1
     9ce:	70 40       	sbci	r23, 0x00	; 0
     9d0:	80 40       	sbci	r24, 0x00	; 0
     9d2:	90 40       	sbci	r25, 0x00	; 0
     9d4:	a1 96       	adiw	r28, 0x21	; 33
     9d6:	6c af       	std	Y+60, r22	; 0x3c
     9d8:	7d af       	std	Y+61, r23	; 0x3d
     9da:	8e af       	std	Y+62, r24	; 0x3e
     9dc:	9f af       	std	Y+63, r25	; 0x3f
     9de:	a1 97       	sbiw	r28, 0x21	; 33
     9e0:	a2 0c       	add	r10, r2
     9e2:	b3 1c       	adc	r11, r3
     9e4:	c4 1c       	adc	r12, r4
     9e6:	d5 1c       	adc	r13, r5
     9e8:	a2 14       	cp	r10, r2
     9ea:	b3 04       	cpc	r11, r3
     9ec:	c4 04       	cpc	r12, r4
     9ee:	d5 04       	cpc	r13, r5
     9f0:	98 f0       	brcs	.+38     	; 0xa18 <__stack+0x1b9>
     9f2:	a2 16       	cp	r10, r18
     9f4:	b3 06       	cpc	r11, r19
     9f6:	c4 06       	cpc	r12, r20
     9f8:	d5 06       	cpc	r13, r21
     9fa:	70 f4       	brcc	.+28     	; 0xa18 <__stack+0x1b9>
     9fc:	61 50       	subi	r22, 0x01	; 1
     9fe:	70 40       	sbci	r23, 0x00	; 0
     a00:	80 40       	sbci	r24, 0x00	; 0
     a02:	90 40       	sbci	r25, 0x00	; 0
     a04:	a1 96       	adiw	r28, 0x21	; 33
     a06:	6c af       	std	Y+60, r22	; 0x3c
     a08:	7d af       	std	Y+61, r23	; 0x3d
     a0a:	8e af       	std	Y+62, r24	; 0x3e
     a0c:	9f af       	std	Y+63, r25	; 0x3f
     a0e:	a1 97       	sbiw	r28, 0x21	; 33
     a10:	a2 0c       	add	r10, r2
     a12:	b3 1c       	adc	r11, r3
     a14:	c4 1c       	adc	r12, r4
     a16:	d5 1c       	adc	r13, r5
     a18:	a2 1a       	sub	r10, r18
     a1a:	b3 0a       	sbc	r11, r19
     a1c:	c4 0a       	sbc	r12, r20
     a1e:	d5 0a       	sbc	r13, r21
     a20:	c6 01       	movw	r24, r12
     a22:	b5 01       	movw	r22, r10
     a24:	69 96       	adiw	r28, 0x19	; 25
     a26:	2c ad       	ldd	r18, Y+60	; 0x3c
     a28:	3d ad       	ldd	r19, Y+61	; 0x3d
     a2a:	4e ad       	ldd	r20, Y+62	; 0x3e
     a2c:	5f ad       	ldd	r21, Y+63	; 0x3f
     a2e:	69 97       	sbiw	r28, 0x19	; 25
     a30:	0e 94 16 22 	call	0x442c	; 0x442c <__udivmodsi4>
     a34:	7b 01       	movw	r14, r22
     a36:	8c 01       	movw	r16, r24
     a38:	c6 01       	movw	r24, r12
     a3a:	b5 01       	movw	r22, r10
     a3c:	69 96       	adiw	r28, 0x19	; 25
     a3e:	2c ad       	ldd	r18, Y+60	; 0x3c
     a40:	3d ad       	ldd	r19, Y+61	; 0x3d
     a42:	4e ad       	ldd	r20, Y+62	; 0x3e
     a44:	5f ad       	ldd	r21, Y+63	; 0x3f
     a46:	69 97       	sbiw	r28, 0x19	; 25
     a48:	0e 94 16 22 	call	0x442c	; 0x442c <__udivmodsi4>
     a4c:	c9 01       	movw	r24, r18
     a4e:	da 01       	movw	r26, r20
     a50:	5c 01       	movw	r10, r24
     a52:	6d 01       	movw	r12, r26
     a54:	c6 01       	movw	r24, r12
     a56:	b5 01       	movw	r22, r10
     a58:	6d 96       	adiw	r28, 0x1d	; 29
     a5a:	2c ad       	ldd	r18, Y+60	; 0x3c
     a5c:	3d ad       	ldd	r19, Y+61	; 0x3d
     a5e:	4e ad       	ldd	r20, Y+62	; 0x3e
     a60:	5f ad       	ldd	r21, Y+63	; 0x3f
     a62:	6d 97       	sbiw	r28, 0x1d	; 29
     a64:	0e 94 f7 21 	call	0x43ee	; 0x43ee <__mulsi3>
     a68:	9b 01       	movw	r18, r22
     a6a:	ac 01       	movw	r20, r24
     a6c:	87 01       	movw	r16, r14
     a6e:	ff 24       	eor	r15, r15
     a70:	ee 24       	eor	r14, r14
     a72:	21 96       	adiw	r28, 0x01	; 1
     a74:	8c ad       	ldd	r24, Y+60	; 0x3c
     a76:	9d ad       	ldd	r25, Y+61	; 0x3d
     a78:	ae ad       	ldd	r26, Y+62	; 0x3e
     a7a:	bf ad       	ldd	r27, Y+63	; 0x3f
     a7c:	21 97       	sbiw	r28, 0x01	; 1
     a7e:	a0 70       	andi	r26, 0x00	; 0
     a80:	b0 70       	andi	r27, 0x00	; 0
     a82:	e8 2a       	or	r14, r24
     a84:	f9 2a       	or	r15, r25
     a86:	0a 2b       	or	r16, r26
     a88:	1b 2b       	or	r17, r27
     a8a:	e2 16       	cp	r14, r18
     a8c:	f3 06       	cpc	r15, r19
     a8e:	04 07       	cpc	r16, r20
     a90:	15 07       	cpc	r17, r21
     a92:	c0 f4       	brcc	.+48     	; 0xac4 <__stack+0x265>
     a94:	08 94       	sec
     a96:	a1 08       	sbc	r10, r1
     a98:	b1 08       	sbc	r11, r1
     a9a:	c1 08       	sbc	r12, r1
     a9c:	d1 08       	sbc	r13, r1
     a9e:	e2 0c       	add	r14, r2
     aa0:	f3 1c       	adc	r15, r3
     aa2:	04 1d       	adc	r16, r4
     aa4:	15 1d       	adc	r17, r5
     aa6:	e2 14       	cp	r14, r2
     aa8:	f3 04       	cpc	r15, r3
     aaa:	04 05       	cpc	r16, r4
     aac:	15 05       	cpc	r17, r5
     aae:	50 f0       	brcs	.+20     	; 0xac4 <__stack+0x265>
     ab0:	e2 16       	cp	r14, r18
     ab2:	f3 06       	cpc	r15, r19
     ab4:	04 07       	cpc	r16, r20
     ab6:	15 07       	cpc	r17, r21
     ab8:	28 f4       	brcc	.+10     	; 0xac4 <__stack+0x265>
     aba:	08 94       	sec
     abc:	a1 08       	sbc	r10, r1
     abe:	b1 08       	sbc	r11, r1
     ac0:	c1 08       	sbc	r12, r1
     ac2:	d1 08       	sbc	r13, r1
     ac4:	a1 96       	adiw	r28, 0x21	; 33
     ac6:	ec ac       	ldd	r14, Y+60	; 0x3c
     ac8:	fd ac       	ldd	r15, Y+61	; 0x3d
     aca:	0e ad       	ldd	r16, Y+62	; 0x3e
     acc:	1f ad       	ldd	r17, Y+63	; 0x3f
     ace:	a1 97       	sbiw	r28, 0x21	; 33
     ad0:	d7 01       	movw	r26, r14
     ad2:	99 27       	eor	r25, r25
     ad4:	88 27       	eor	r24, r24
     ad6:	96 01       	movw	r18, r12
     ad8:	85 01       	movw	r16, r10
     ada:	08 2b       	or	r16, r24
     adc:	19 2b       	or	r17, r25
     ade:	2a 2b       	or	r18, r26
     ae0:	3b 2b       	or	r19, r27
     ae2:	25 96       	adiw	r28, 0x05	; 5
     ae4:	0c af       	std	Y+60, r16	; 0x3c
     ae6:	1d af       	std	Y+61, r17	; 0x3d
     ae8:	2e af       	std	Y+62, r18	; 0x3e
     aea:	3f af       	std	Y+63, r19	; 0x3f
     aec:	25 97       	sbiw	r28, 0x05	; 5
     aee:	72 c2       	rjmp	.+1252   	; 0xfd4 <__stack+0x775>
     af0:	6e 14       	cp	r6, r14
     af2:	7f 04       	cpc	r7, r15
     af4:	80 06       	cpc	r8, r16
     af6:	91 06       	cpc	r9, r17
     af8:	08 f4       	brcc	.+2      	; 0xafc <__stack+0x29d>
     afa:	5f c2       	rjmp	.+1214   	; 0xfba <__stack+0x75b>
     afc:	20 e0       	ldi	r18, 0x00	; 0
     afe:	e2 16       	cp	r14, r18
     b00:	20 e0       	ldi	r18, 0x00	; 0
     b02:	f2 06       	cpc	r15, r18
     b04:	21 e0       	ldi	r18, 0x01	; 1
     b06:	02 07       	cpc	r16, r18
     b08:	20 e0       	ldi	r18, 0x00	; 0
     b0a:	12 07       	cpc	r17, r18
     b0c:	88 f4       	brcc	.+34     	; 0xb30 <__stack+0x2d1>
     b0e:	3f ef       	ldi	r19, 0xFF	; 255
     b10:	e3 16       	cp	r14, r19
     b12:	f1 04       	cpc	r15, r1
     b14:	01 05       	cpc	r16, r1
     b16:	11 05       	cpc	r17, r1
     b18:	31 f0       	breq	.+12     	; 0xb26 <__stack+0x2c7>
     b1a:	28 f0       	brcs	.+10     	; 0xb26 <__stack+0x2c7>
     b1c:	48 e0       	ldi	r20, 0x08	; 8
     b1e:	50 e0       	ldi	r21, 0x00	; 0
     b20:	60 e0       	ldi	r22, 0x00	; 0
     b22:	70 e0       	ldi	r23, 0x00	; 0
     b24:	17 c0       	rjmp	.+46     	; 0xb54 <__stack+0x2f5>
     b26:	40 e0       	ldi	r20, 0x00	; 0
     b28:	50 e0       	ldi	r21, 0x00	; 0
     b2a:	60 e0       	ldi	r22, 0x00	; 0
     b2c:	70 e0       	ldi	r23, 0x00	; 0
     b2e:	12 c0       	rjmp	.+36     	; 0xb54 <__stack+0x2f5>
     b30:	40 e0       	ldi	r20, 0x00	; 0
     b32:	e4 16       	cp	r14, r20
     b34:	40 e0       	ldi	r20, 0x00	; 0
     b36:	f4 06       	cpc	r15, r20
     b38:	40 e0       	ldi	r20, 0x00	; 0
     b3a:	04 07       	cpc	r16, r20
     b3c:	41 e0       	ldi	r20, 0x01	; 1
     b3e:	14 07       	cpc	r17, r20
     b40:	28 f0       	brcs	.+10     	; 0xb4c <__stack+0x2ed>
     b42:	48 e1       	ldi	r20, 0x18	; 24
     b44:	50 e0       	ldi	r21, 0x00	; 0
     b46:	60 e0       	ldi	r22, 0x00	; 0
     b48:	70 e0       	ldi	r23, 0x00	; 0
     b4a:	04 c0       	rjmp	.+8      	; 0xb54 <__stack+0x2f5>
     b4c:	40 e1       	ldi	r20, 0x10	; 16
     b4e:	50 e0       	ldi	r21, 0x00	; 0
     b50:	60 e0       	ldi	r22, 0x00	; 0
     b52:	70 e0       	ldi	r23, 0x00	; 0
     b54:	d8 01       	movw	r26, r16
     b56:	c7 01       	movw	r24, r14
     b58:	04 2e       	mov	r0, r20
     b5a:	04 c0       	rjmp	.+8      	; 0xb64 <__stack+0x305>
     b5c:	b6 95       	lsr	r27
     b5e:	a7 95       	ror	r26
     b60:	97 95       	ror	r25
     b62:	87 95       	ror	r24
     b64:	0a 94       	dec	r0
     b66:	d2 f7       	brpl	.-12     	; 0xb5c <__stack+0x2fd>
     b68:	8b 59       	subi	r24, 0x9B	; 155
     b6a:	9f 4f       	sbci	r25, 0xFF	; 255
     b6c:	dc 01       	movw	r26, r24
     b6e:	2c 91       	ld	r18, X
     b70:	30 e2       	ldi	r19, 0x20	; 32
     b72:	a3 2e       	mov	r10, r19
     b74:	b1 2c       	mov	r11, r1
     b76:	c1 2c       	mov	r12, r1
     b78:	d1 2c       	mov	r13, r1
     b7a:	d6 01       	movw	r26, r12
     b7c:	c5 01       	movw	r24, r10
     b7e:	84 1b       	sub	r24, r20
     b80:	95 0b       	sbc	r25, r21
     b82:	a6 0b       	sbc	r26, r22
     b84:	b7 0b       	sbc	r27, r23
     b86:	82 1b       	sub	r24, r18
     b88:	91 09       	sbc	r25, r1
     b8a:	a1 09       	sbc	r26, r1
     b8c:	b1 09       	sbc	r27, r1
     b8e:	00 97       	sbiw	r24, 0x00	; 0
     b90:	a1 05       	cpc	r26, r1
     b92:	b1 05       	cpc	r27, r1
     b94:	99 f4       	brne	.+38     	; 0xbbc <__stack+0x35d>
     b96:	e6 14       	cp	r14, r6
     b98:	f7 04       	cpc	r15, r7
     b9a:	08 05       	cpc	r16, r8
     b9c:	19 05       	cpc	r17, r9
     b9e:	08 f4       	brcc	.+2      	; 0xba2 <__stack+0x343>
     ba0:	fe c1       	rjmp	.+1020   	; 0xf9e <__stack+0x73f>
     ba2:	21 96       	adiw	r28, 0x01	; 1
     ba4:	6c ac       	ldd	r6, Y+60	; 0x3c
     ba6:	7d ac       	ldd	r7, Y+61	; 0x3d
     ba8:	8e ac       	ldd	r8, Y+62	; 0x3e
     baa:	9f ac       	ldd	r9, Y+63	; 0x3f
     bac:	21 97       	sbiw	r28, 0x01	; 1
     bae:	62 14       	cp	r6, r2
     bb0:	73 04       	cpc	r7, r3
     bb2:	84 04       	cpc	r8, r4
     bb4:	95 04       	cpc	r9, r5
     bb6:	08 f0       	brcs	.+2      	; 0xbba <__stack+0x35b>
     bb8:	f2 c1       	rjmp	.+996    	; 0xf9e <__stack+0x73f>
     bba:	ff c1       	rjmp	.+1022   	; 0xfba <__stack+0x75b>
     bbc:	e2 96       	adiw	r28, 0x32	; 50
     bbe:	8f af       	std	Y+63, r24	; 0x3f
     bc0:	e2 97       	sbiw	r28, 0x32	; 50
     bc2:	08 2e       	mov	r0, r24
     bc4:	04 c0       	rjmp	.+8      	; 0xbce <__stack+0x36f>
     bc6:	ee 0c       	add	r14, r14
     bc8:	ff 1c       	adc	r15, r15
     bca:	00 1f       	adc	r16, r16
     bcc:	11 1f       	adc	r17, r17
     bce:	0a 94       	dec	r0
     bd0:	d2 f7       	brpl	.-12     	; 0xbc6 <__stack+0x367>
     bd2:	6a 2d       	mov	r22, r10
     bd4:	68 1b       	sub	r22, r24
     bd6:	d2 01       	movw	r26, r4
     bd8:	c1 01       	movw	r24, r2
     bda:	06 2e       	mov	r0, r22
     bdc:	04 c0       	rjmp	.+8      	; 0xbe6 <__stack+0x387>
     bde:	b6 95       	lsr	r27
     be0:	a7 95       	ror	r26
     be2:	97 95       	ror	r25
     be4:	87 95       	ror	r24
     be6:	0a 94       	dec	r0
     be8:	d2 f7       	brpl	.-12     	; 0xbde <__stack+0x37f>
     bea:	5c 01       	movw	r10, r24
     bec:	6d 01       	movw	r12, r26
     bee:	ae 28       	or	r10, r14
     bf0:	bf 28       	or	r11, r15
     bf2:	c0 2a       	or	r12, r16
     bf4:	d1 2a       	or	r13, r17
     bf6:	ad aa       	std	Y+53, r10	; 0x35
     bf8:	be aa       	std	Y+54, r11	; 0x36
     bfa:	cf aa       	std	Y+55, r12	; 0x37
     bfc:	d8 ae       	std	Y+56, r13	; 0x38
     bfe:	72 01       	movw	r14, r4
     c00:	61 01       	movw	r12, r2
     c02:	e2 96       	adiw	r28, 0x32	; 50
     c04:	0f ac       	ldd	r0, Y+63	; 0x3f
     c06:	e2 97       	sbiw	r28, 0x32	; 50
     c08:	04 c0       	rjmp	.+8      	; 0xc12 <__stack+0x3b3>
     c0a:	cc 0c       	add	r12, r12
     c0c:	dd 1c       	adc	r13, r13
     c0e:	ee 1c       	adc	r14, r14
     c10:	ff 1c       	adc	r15, r15
     c12:	0a 94       	dec	r0
     c14:	d2 f7       	brpl	.-12     	; 0xc0a <__stack+0x3ab>
     c16:	c9 aa       	std	Y+49, r12	; 0x31
     c18:	da aa       	std	Y+50, r13	; 0x32
     c1a:	eb aa       	std	Y+51, r14	; 0x33
     c1c:	fc aa       	std	Y+52, r15	; 0x34
     c1e:	64 01       	movw	r12, r8
     c20:	53 01       	movw	r10, r6
     c22:	06 2e       	mov	r0, r22
     c24:	04 c0       	rjmp	.+8      	; 0xc2e <__stack+0x3cf>
     c26:	d6 94       	lsr	r13
     c28:	c7 94       	ror	r12
     c2a:	b7 94       	ror	r11
     c2c:	a7 94       	ror	r10
     c2e:	0a 94       	dec	r0
     c30:	d2 f7       	brpl	.-12     	; 0xc26 <__stack+0x3c7>
     c32:	d4 01       	movw	r26, r8
     c34:	c3 01       	movw	r24, r6
     c36:	e2 96       	adiw	r28, 0x32	; 50
     c38:	0f ac       	ldd	r0, Y+63	; 0x3f
     c3a:	e2 97       	sbiw	r28, 0x32	; 50
     c3c:	04 c0       	rjmp	.+8      	; 0xc46 <__stack+0x3e7>
     c3e:	88 0f       	add	r24, r24
     c40:	99 1f       	adc	r25, r25
     c42:	aa 1f       	adc	r26, r26
     c44:	bb 1f       	adc	r27, r27
     c46:	0a 94       	dec	r0
     c48:	d2 f7       	brpl	.-12     	; 0xc3e <__stack+0x3df>
     c4a:	21 96       	adiw	r28, 0x01	; 1
     c4c:	ec ac       	ldd	r14, Y+60	; 0x3c
     c4e:	fd ac       	ldd	r15, Y+61	; 0x3d
     c50:	0e ad       	ldd	r16, Y+62	; 0x3e
     c52:	1f ad       	ldd	r17, Y+63	; 0x3f
     c54:	21 97       	sbiw	r28, 0x01	; 1
     c56:	04 c0       	rjmp	.+8      	; 0xc60 <__stack+0x401>
     c58:	16 95       	lsr	r17
     c5a:	07 95       	ror	r16
     c5c:	f7 94       	ror	r15
     c5e:	e7 94       	ror	r14
     c60:	6a 95       	dec	r22
     c62:	d2 f7       	brpl	.-12     	; 0xc58 <__stack+0x3f9>
     c64:	37 01       	movw	r6, r14
     c66:	48 01       	movw	r8, r16
     c68:	68 2a       	or	r6, r24
     c6a:	79 2a       	or	r7, r25
     c6c:	8a 2a       	or	r8, r26
     c6e:	9b 2a       	or	r9, r27
     c70:	6d a6       	std	Y+45, r6	; 0x2d
     c72:	7e a6       	std	Y+46, r7	; 0x2e
     c74:	8f a6       	std	Y+47, r8	; 0x2f
     c76:	98 aa       	std	Y+48, r9	; 0x30
     c78:	ed a8       	ldd	r14, Y+53	; 0x35
     c7a:	fe a8       	ldd	r15, Y+54	; 0x36
     c7c:	0f a9       	ldd	r16, Y+55	; 0x37
     c7e:	18 ad       	ldd	r17, Y+56	; 0x38
     c80:	38 01       	movw	r6, r16
     c82:	88 24       	eor	r8, r8
     c84:	99 24       	eor	r9, r9
     c86:	98 01       	movw	r18, r16
     c88:	87 01       	movw	r16, r14
     c8a:	20 70       	andi	r18, 0x00	; 0
     c8c:	30 70       	andi	r19, 0x00	; 0
     c8e:	a5 96       	adiw	r28, 0x25	; 37
     c90:	0c af       	std	Y+60, r16	; 0x3c
     c92:	1d af       	std	Y+61, r17	; 0x3d
     c94:	2e af       	std	Y+62, r18	; 0x3e
     c96:	3f af       	std	Y+63, r19	; 0x3f
     c98:	a5 97       	sbiw	r28, 0x25	; 37
     c9a:	c6 01       	movw	r24, r12
     c9c:	b5 01       	movw	r22, r10
     c9e:	a4 01       	movw	r20, r8
     ca0:	93 01       	movw	r18, r6
     ca2:	0e 94 16 22 	call	0x442c	; 0x442c <__udivmodsi4>
     ca6:	7b 01       	movw	r14, r22
     ca8:	8c 01       	movw	r16, r24
     caa:	c6 01       	movw	r24, r12
     cac:	b5 01       	movw	r22, r10
     cae:	a4 01       	movw	r20, r8
     cb0:	93 01       	movw	r18, r6
     cb2:	0e 94 16 22 	call	0x442c	; 0x442c <__udivmodsi4>
     cb6:	c9 01       	movw	r24, r18
     cb8:	da 01       	movw	r26, r20
     cba:	1c 01       	movw	r2, r24
     cbc:	2d 01       	movw	r4, r26
     cbe:	c2 01       	movw	r24, r4
     cc0:	b1 01       	movw	r22, r2
     cc2:	a5 96       	adiw	r28, 0x25	; 37
     cc4:	2c ad       	ldd	r18, Y+60	; 0x3c
     cc6:	3d ad       	ldd	r19, Y+61	; 0x3d
     cc8:	4e ad       	ldd	r20, Y+62	; 0x3e
     cca:	5f ad       	ldd	r21, Y+63	; 0x3f
     ccc:	a5 97       	sbiw	r28, 0x25	; 37
     cce:	0e 94 f7 21 	call	0x43ee	; 0x43ee <__mulsi3>
     cd2:	9b 01       	movw	r18, r22
     cd4:	ac 01       	movw	r20, r24
     cd6:	87 01       	movw	r16, r14
     cd8:	ff 24       	eor	r15, r15
     cda:	ee 24       	eor	r14, r14
     cdc:	ad a4       	ldd	r10, Y+45	; 0x2d
     cde:	be a4       	ldd	r11, Y+46	; 0x2e
     ce0:	cf a4       	ldd	r12, Y+47	; 0x2f
     ce2:	d8 a8       	ldd	r13, Y+48	; 0x30
     ce4:	c6 01       	movw	r24, r12
     ce6:	aa 27       	eor	r26, r26
     ce8:	bb 27       	eor	r27, r27
     cea:	57 01       	movw	r10, r14
     cec:	68 01       	movw	r12, r16
     cee:	a8 2a       	or	r10, r24
     cf0:	b9 2a       	or	r11, r25
     cf2:	ca 2a       	or	r12, r26
     cf4:	db 2a       	or	r13, r27
     cf6:	a2 16       	cp	r10, r18
     cf8:	b3 06       	cpc	r11, r19
     cfa:	c4 06       	cpc	r12, r20
     cfc:	d5 06       	cpc	r13, r21
     cfe:	00 f5       	brcc	.+64     	; 0xd40 <__stack+0x4e1>
     d00:	08 94       	sec
     d02:	21 08       	sbc	r2, r1
     d04:	31 08       	sbc	r3, r1
     d06:	41 08       	sbc	r4, r1
     d08:	51 08       	sbc	r5, r1
     d0a:	ed a8       	ldd	r14, Y+53	; 0x35
     d0c:	fe a8       	ldd	r15, Y+54	; 0x36
     d0e:	0f a9       	ldd	r16, Y+55	; 0x37
     d10:	18 ad       	ldd	r17, Y+56	; 0x38
     d12:	ae 0c       	add	r10, r14
     d14:	bf 1c       	adc	r11, r15
     d16:	c0 1e       	adc	r12, r16
     d18:	d1 1e       	adc	r13, r17
     d1a:	ae 14       	cp	r10, r14
     d1c:	bf 04       	cpc	r11, r15
     d1e:	c0 06       	cpc	r12, r16
     d20:	d1 06       	cpc	r13, r17
     d22:	70 f0       	brcs	.+28     	; 0xd40 <__stack+0x4e1>
     d24:	a2 16       	cp	r10, r18
     d26:	b3 06       	cpc	r11, r19
     d28:	c4 06       	cpc	r12, r20
     d2a:	d5 06       	cpc	r13, r21
     d2c:	48 f4       	brcc	.+18     	; 0xd40 <__stack+0x4e1>
     d2e:	08 94       	sec
     d30:	21 08       	sbc	r2, r1
     d32:	31 08       	sbc	r3, r1
     d34:	41 08       	sbc	r4, r1
     d36:	51 08       	sbc	r5, r1
     d38:	ae 0c       	add	r10, r14
     d3a:	bf 1c       	adc	r11, r15
     d3c:	c0 1e       	adc	r12, r16
     d3e:	d1 1e       	adc	r13, r17
     d40:	a2 1a       	sub	r10, r18
     d42:	b3 0a       	sbc	r11, r19
     d44:	c4 0a       	sbc	r12, r20
     d46:	d5 0a       	sbc	r13, r21
     d48:	c6 01       	movw	r24, r12
     d4a:	b5 01       	movw	r22, r10
     d4c:	a4 01       	movw	r20, r8
     d4e:	93 01       	movw	r18, r6
     d50:	0e 94 16 22 	call	0x442c	; 0x442c <__udivmodsi4>
     d54:	7b 01       	movw	r14, r22
     d56:	8c 01       	movw	r16, r24
     d58:	c6 01       	movw	r24, r12
     d5a:	b5 01       	movw	r22, r10
     d5c:	a4 01       	movw	r20, r8
     d5e:	93 01       	movw	r18, r6
     d60:	0e 94 16 22 	call	0x442c	; 0x442c <__udivmodsi4>
     d64:	c9 01       	movw	r24, r18
     d66:	da 01       	movw	r26, r20
     d68:	3c 01       	movw	r6, r24
     d6a:	4d 01       	movw	r8, r26
     d6c:	c4 01       	movw	r24, r8
     d6e:	b3 01       	movw	r22, r6
     d70:	a5 96       	adiw	r28, 0x25	; 37
     d72:	2c ad       	ldd	r18, Y+60	; 0x3c
     d74:	3d ad       	ldd	r19, Y+61	; 0x3d
     d76:	4e ad       	ldd	r20, Y+62	; 0x3e
     d78:	5f ad       	ldd	r21, Y+63	; 0x3f
     d7a:	a5 97       	sbiw	r28, 0x25	; 37
     d7c:	0e 94 f7 21 	call	0x43ee	; 0x43ee <__mulsi3>
     d80:	9b 01       	movw	r18, r22
     d82:	ac 01       	movw	r20, r24
     d84:	87 01       	movw	r16, r14
     d86:	ff 24       	eor	r15, r15
     d88:	ee 24       	eor	r14, r14
     d8a:	8d a5       	ldd	r24, Y+45	; 0x2d
     d8c:	9e a5       	ldd	r25, Y+46	; 0x2e
     d8e:	af a5       	ldd	r26, Y+47	; 0x2f
     d90:	b8 a9       	ldd	r27, Y+48	; 0x30
     d92:	a0 70       	andi	r26, 0x00	; 0
     d94:	b0 70       	andi	r27, 0x00	; 0
     d96:	57 01       	movw	r10, r14
     d98:	68 01       	movw	r12, r16
     d9a:	a8 2a       	or	r10, r24
     d9c:	b9 2a       	or	r11, r25
     d9e:	ca 2a       	or	r12, r26
     da0:	db 2a       	or	r13, r27
     da2:	a2 16       	cp	r10, r18
     da4:	b3 06       	cpc	r11, r19
     da6:	c4 06       	cpc	r12, r20
     da8:	d5 06       	cpc	r13, r21
     daa:	00 f5       	brcc	.+64     	; 0xdec <__stack+0x58d>
     dac:	08 94       	sec
     dae:	61 08       	sbc	r6, r1
     db0:	71 08       	sbc	r7, r1
     db2:	81 08       	sbc	r8, r1
     db4:	91 08       	sbc	r9, r1
     db6:	6d a9       	ldd	r22, Y+53	; 0x35
     db8:	7e a9       	ldd	r23, Y+54	; 0x36
     dba:	8f a9       	ldd	r24, Y+55	; 0x37
     dbc:	98 ad       	ldd	r25, Y+56	; 0x38
     dbe:	a6 0e       	add	r10, r22
     dc0:	b7 1e       	adc	r11, r23
     dc2:	c8 1e       	adc	r12, r24
     dc4:	d9 1e       	adc	r13, r25
     dc6:	a6 16       	cp	r10, r22
     dc8:	b7 06       	cpc	r11, r23
     dca:	c8 06       	cpc	r12, r24
     dcc:	d9 06       	cpc	r13, r25
     dce:	70 f0       	brcs	.+28     	; 0xdec <__stack+0x58d>
     dd0:	a2 16       	cp	r10, r18
     dd2:	b3 06       	cpc	r11, r19
     dd4:	c4 06       	cpc	r12, r20
     dd6:	d5 06       	cpc	r13, r21
     dd8:	48 f4       	brcc	.+18     	; 0xdec <__stack+0x58d>
     dda:	08 94       	sec
     ddc:	61 08       	sbc	r6, r1
     dde:	71 08       	sbc	r7, r1
     de0:	81 08       	sbc	r8, r1
     de2:	91 08       	sbc	r9, r1
     de4:	a6 0e       	add	r10, r22
     de6:	b7 1e       	adc	r11, r23
     de8:	c8 1e       	adc	r12, r24
     dea:	d9 1e       	adc	r13, r25
     dec:	d6 01       	movw	r26, r12
     dee:	c5 01       	movw	r24, r10
     df0:	82 1b       	sub	r24, r18
     df2:	93 0b       	sbc	r25, r19
     df4:	a4 0b       	sbc	r26, r20
     df6:	b5 0b       	sbc	r27, r21
     df8:	89 a7       	std	Y+41, r24	; 0x29
     dfa:	9a a7       	std	Y+42, r25	; 0x2a
     dfc:	ab a7       	std	Y+43, r26	; 0x2b
     dfe:	bc a7       	std	Y+44, r27	; 0x2c
     e00:	d1 01       	movw	r26, r2
     e02:	99 27       	eor	r25, r25
     e04:	88 27       	eor	r24, r24
     e06:	64 01       	movw	r12, r8
     e08:	53 01       	movw	r10, r6
     e0a:	a8 2a       	or	r10, r24
     e0c:	b9 2a       	or	r11, r25
     e0e:	ca 2a       	or	r12, r26
     e10:	db 2a       	or	r13, r27
     e12:	25 96       	adiw	r28, 0x05	; 5
     e14:	ac ae       	std	Y+60, r10	; 0x3c
     e16:	bd ae       	std	Y+61, r11	; 0x3d
     e18:	ce ae       	std	Y+62, r12	; 0x3e
     e1a:	df ae       	std	Y+63, r13	; 0x3f
     e1c:	25 97       	sbiw	r28, 0x05	; 5
     e1e:	86 01       	movw	r16, r12
     e20:	75 01       	movw	r14, r10
     e22:	2f ef       	ldi	r18, 0xFF	; 255
     e24:	3f ef       	ldi	r19, 0xFF	; 255
     e26:	40 e0       	ldi	r20, 0x00	; 0
     e28:	50 e0       	ldi	r21, 0x00	; 0
     e2a:	e2 22       	and	r14, r18
     e2c:	f3 22       	and	r15, r19
     e2e:	04 23       	and	r16, r20
     e30:	15 23       	and	r17, r21
     e32:	a6 01       	movw	r20, r12
     e34:	66 27       	eor	r22, r22
     e36:	77 27       	eor	r23, r23
     e38:	ad 96       	adiw	r28, 0x2d	; 45
     e3a:	4c af       	std	Y+60, r20	; 0x3c
     e3c:	5d af       	std	Y+61, r21	; 0x3d
     e3e:	6e af       	std	Y+62, r22	; 0x3e
     e40:	7f af       	std	Y+63, r23	; 0x3f
     e42:	ad 97       	sbiw	r28, 0x2d	; 45
     e44:	a9 a8       	ldd	r10, Y+49	; 0x31
     e46:	ba a8       	ldd	r11, Y+50	; 0x32
     e48:	cb a8       	ldd	r12, Y+51	; 0x33
     e4a:	dc a8       	ldd	r13, Y+52	; 0x34
     e4c:	6f ef       	ldi	r22, 0xFF	; 255
     e4e:	7f ef       	ldi	r23, 0xFF	; 255
     e50:	80 e0       	ldi	r24, 0x00	; 0
     e52:	90 e0       	ldi	r25, 0x00	; 0
     e54:	a6 22       	and	r10, r22
     e56:	b7 22       	and	r11, r23
     e58:	c8 22       	and	r12, r24
     e5a:	d9 22       	and	r13, r25
     e5c:	89 a9       	ldd	r24, Y+49	; 0x31
     e5e:	9a a9       	ldd	r25, Y+50	; 0x32
     e60:	ab a9       	ldd	r26, Y+51	; 0x33
     e62:	bc a9       	ldd	r27, Y+52	; 0x34
     e64:	1d 01       	movw	r2, r26
     e66:	44 24       	eor	r4, r4
     e68:	55 24       	eor	r5, r5
     e6a:	c8 01       	movw	r24, r16
     e6c:	b7 01       	movw	r22, r14
     e6e:	a6 01       	movw	r20, r12
     e70:	95 01       	movw	r18, r10
     e72:	0e 94 f7 21 	call	0x43ee	; 0x43ee <__mulsi3>
     e76:	a9 96       	adiw	r28, 0x29	; 41
     e78:	6c af       	std	Y+60, r22	; 0x3c
     e7a:	7d af       	std	Y+61, r23	; 0x3d
     e7c:	8e af       	std	Y+62, r24	; 0x3e
     e7e:	9f af       	std	Y+63, r25	; 0x3f
     e80:	a9 97       	sbiw	r28, 0x29	; 41
     e82:	c8 01       	movw	r24, r16
     e84:	b7 01       	movw	r22, r14
     e86:	a2 01       	movw	r20, r4
     e88:	91 01       	movw	r18, r2
     e8a:	0e 94 f7 21 	call	0x43ee	; 0x43ee <__mulsi3>
     e8e:	3b 01       	movw	r6, r22
     e90:	4c 01       	movw	r8, r24
     e92:	ad 96       	adiw	r28, 0x2d	; 45
     e94:	6c ad       	ldd	r22, Y+60	; 0x3c
     e96:	7d ad       	ldd	r23, Y+61	; 0x3d
     e98:	8e ad       	ldd	r24, Y+62	; 0x3e
     e9a:	9f ad       	ldd	r25, Y+63	; 0x3f
     e9c:	ad 97       	sbiw	r28, 0x2d	; 45
     e9e:	a6 01       	movw	r20, r12
     ea0:	95 01       	movw	r18, r10
     ea2:	0e 94 f7 21 	call	0x43ee	; 0x43ee <__mulsi3>
     ea6:	7b 01       	movw	r14, r22
     ea8:	8c 01       	movw	r16, r24
     eaa:	ad 96       	adiw	r28, 0x2d	; 45
     eac:	6c ad       	ldd	r22, Y+60	; 0x3c
     eae:	7d ad       	ldd	r23, Y+61	; 0x3d
     eb0:	8e ad       	ldd	r24, Y+62	; 0x3e
     eb2:	9f ad       	ldd	r25, Y+63	; 0x3f
     eb4:	ad 97       	sbiw	r28, 0x2d	; 45
     eb6:	a2 01       	movw	r20, r4
     eb8:	91 01       	movw	r18, r2
     eba:	0e 94 f7 21 	call	0x43ee	; 0x43ee <__mulsi3>
     ebe:	5b 01       	movw	r10, r22
     ec0:	6c 01       	movw	r12, r24
     ec2:	a8 01       	movw	r20, r16
     ec4:	97 01       	movw	r18, r14
     ec6:	26 0d       	add	r18, r6
     ec8:	37 1d       	adc	r19, r7
     eca:	48 1d       	adc	r20, r8
     ecc:	59 1d       	adc	r21, r9
     ece:	a9 96       	adiw	r28, 0x29	; 41
     ed0:	6c ac       	ldd	r6, Y+60	; 0x3c
     ed2:	7d ac       	ldd	r7, Y+61	; 0x3d
     ed4:	8e ac       	ldd	r8, Y+62	; 0x3e
     ed6:	9f ac       	ldd	r9, Y+63	; 0x3f
     ed8:	a9 97       	sbiw	r28, 0x29	; 41
     eda:	c4 01       	movw	r24, r8
     edc:	aa 27       	eor	r26, r26
     ede:	bb 27       	eor	r27, r27
     ee0:	28 0f       	add	r18, r24
     ee2:	39 1f       	adc	r19, r25
     ee4:	4a 1f       	adc	r20, r26
     ee6:	5b 1f       	adc	r21, r27
     ee8:	2e 15       	cp	r18, r14
     eea:	3f 05       	cpc	r19, r15
     eec:	40 07       	cpc	r20, r16
     eee:	51 07       	cpc	r21, r17
     ef0:	48 f4       	brcc	.+18     	; 0xf04 <__stack+0x6a5>
     ef2:	e1 2c       	mov	r14, r1
     ef4:	f1 2c       	mov	r15, r1
     ef6:	61 e0       	ldi	r22, 0x01	; 1
     ef8:	06 2f       	mov	r16, r22
     efa:	11 2d       	mov	r17, r1
     efc:	ae 0c       	add	r10, r14
     efe:	bf 1c       	adc	r11, r15
     f00:	c0 1e       	adc	r12, r16
     f02:	d1 1e       	adc	r13, r17
     f04:	ca 01       	movw	r24, r20
     f06:	aa 27       	eor	r26, r26
     f08:	bb 27       	eor	r27, r27
     f0a:	bc 01       	movw	r22, r24
     f0c:	cd 01       	movw	r24, r26
     f0e:	6a 0d       	add	r22, r10
     f10:	7b 1d       	adc	r23, r11
     f12:	8c 1d       	adc	r24, r12
     f14:	9d 1d       	adc	r25, r13
     f16:	69 a4       	ldd	r6, Y+41	; 0x29
     f18:	7a a4       	ldd	r7, Y+42	; 0x2a
     f1a:	8b a4       	ldd	r8, Y+43	; 0x2b
     f1c:	9c a4       	ldd	r9, Y+44	; 0x2c
     f1e:	66 16       	cp	r6, r22
     f20:	77 06       	cpc	r7, r23
     f22:	88 06       	cpc	r8, r24
     f24:	99 06       	cpc	r9, r25
     f26:	50 f1       	brcs	.+84     	; 0xf7c <__stack+0x71d>
     f28:	66 15       	cp	r22, r6
     f2a:	77 05       	cpc	r23, r7
     f2c:	88 05       	cpc	r24, r8
     f2e:	99 05       	cpc	r25, r9
     f30:	09 f0       	breq	.+2      	; 0xf34 <__stack+0x6d5>
     f32:	4d c0       	rjmp	.+154    	; 0xfce <__stack+0x76f>
     f34:	d9 01       	movw	r26, r18
     f36:	99 27       	eor	r25, r25
     f38:	88 27       	eor	r24, r24
     f3a:	a9 96       	adiw	r28, 0x29	; 41
     f3c:	2c ad       	ldd	r18, Y+60	; 0x3c
     f3e:	3d ad       	ldd	r19, Y+61	; 0x3d
     f40:	4e ad       	ldd	r20, Y+62	; 0x3e
     f42:	5f ad       	ldd	r21, Y+63	; 0x3f
     f44:	a9 97       	sbiw	r28, 0x29	; 41
     f46:	40 70       	andi	r20, 0x00	; 0
     f48:	50 70       	andi	r21, 0x00	; 0
     f4a:	82 0f       	add	r24, r18
     f4c:	93 1f       	adc	r25, r19
     f4e:	a4 1f       	adc	r26, r20
     f50:	b5 1f       	adc	r27, r21
     f52:	21 96       	adiw	r28, 0x01	; 1
     f54:	2c ad       	ldd	r18, Y+60	; 0x3c
     f56:	3d ad       	ldd	r19, Y+61	; 0x3d
     f58:	4e ad       	ldd	r20, Y+62	; 0x3e
     f5a:	5f ad       	ldd	r21, Y+63	; 0x3f
     f5c:	21 97       	sbiw	r28, 0x01	; 1
     f5e:	e2 96       	adiw	r28, 0x32	; 50
     f60:	0f ac       	ldd	r0, Y+63	; 0x3f
     f62:	e2 97       	sbiw	r28, 0x32	; 50
     f64:	04 c0       	rjmp	.+8      	; 0xf6e <__stack+0x70f>
     f66:	22 0f       	add	r18, r18
     f68:	33 1f       	adc	r19, r19
     f6a:	44 1f       	adc	r20, r20
     f6c:	55 1f       	adc	r21, r21
     f6e:	0a 94       	dec	r0
     f70:	d2 f7       	brpl	.-12     	; 0xf66 <__stack+0x707>
     f72:	28 17       	cp	r18, r24
     f74:	39 07       	cpc	r19, r25
     f76:	4a 07       	cpc	r20, r26
     f78:	5b 07       	cpc	r21, r27
     f7a:	48 f5       	brcc	.+82     	; 0xfce <__stack+0x76f>
     f7c:	25 96       	adiw	r28, 0x05	; 5
     f7e:	0c ad       	ldd	r16, Y+60	; 0x3c
     f80:	1d ad       	ldd	r17, Y+61	; 0x3d
     f82:	2e ad       	ldd	r18, Y+62	; 0x3e
     f84:	3f ad       	ldd	r19, Y+63	; 0x3f
     f86:	25 97       	sbiw	r28, 0x05	; 5
     f88:	01 50       	subi	r16, 0x01	; 1
     f8a:	10 40       	sbci	r17, 0x00	; 0
     f8c:	20 40       	sbci	r18, 0x00	; 0
     f8e:	30 40       	sbci	r19, 0x00	; 0
     f90:	25 96       	adiw	r28, 0x05	; 5
     f92:	0c af       	std	Y+60, r16	; 0x3c
     f94:	1d af       	std	Y+61, r17	; 0x3d
     f96:	2e af       	std	Y+62, r18	; 0x3e
     f98:	3f af       	std	Y+63, r19	; 0x3f
     f9a:	25 97       	sbiw	r28, 0x05	; 5
     f9c:	18 c0       	rjmp	.+48     	; 0xfce <__stack+0x76f>
     f9e:	66 24       	eor	r6, r6
     fa0:	77 24       	eor	r7, r7
     fa2:	43 01       	movw	r8, r6
     fa4:	21 e0       	ldi	r18, 0x01	; 1
     fa6:	30 e0       	ldi	r19, 0x00	; 0
     fa8:	40 e0       	ldi	r20, 0x00	; 0
     faa:	50 e0       	ldi	r21, 0x00	; 0
     fac:	25 96       	adiw	r28, 0x05	; 5
     fae:	2c af       	std	Y+60, r18	; 0x3c
     fb0:	3d af       	std	Y+61, r19	; 0x3d
     fb2:	4e af       	std	Y+62, r20	; 0x3e
     fb4:	5f af       	std	Y+63, r21	; 0x3f
     fb6:	25 97       	sbiw	r28, 0x05	; 5
     fb8:	0d c0       	rjmp	.+26     	; 0xfd4 <__stack+0x775>
     fba:	66 24       	eor	r6, r6
     fbc:	77 24       	eor	r7, r7
     fbe:	43 01       	movw	r8, r6
     fc0:	25 96       	adiw	r28, 0x05	; 5
     fc2:	1c ae       	std	Y+60, r1	; 0x3c
     fc4:	1d ae       	std	Y+61, r1	; 0x3d
     fc6:	1e ae       	std	Y+62, r1	; 0x3e
     fc8:	1f ae       	std	Y+63, r1	; 0x3f
     fca:	25 97       	sbiw	r28, 0x05	; 5
     fcc:	03 c0       	rjmp	.+6      	; 0xfd4 <__stack+0x775>
     fce:	66 24       	eor	r6, r6
     fd0:	77 24       	eor	r7, r7
     fd2:	43 01       	movw	r8, r6
     fd4:	fe 01       	movw	r30, r28
     fd6:	b1 96       	adiw	r30, 0x21	; 33
     fd8:	88 e0       	ldi	r24, 0x08	; 8
     fda:	df 01       	movw	r26, r30
     fdc:	1d 92       	st	X+, r1
     fde:	8a 95       	dec	r24
     fe0:	e9 f7       	brne	.-6      	; 0xfdc <__stack+0x77d>
     fe2:	25 96       	adiw	r28, 0x05	; 5
     fe4:	ac ac       	ldd	r10, Y+60	; 0x3c
     fe6:	bd ac       	ldd	r11, Y+61	; 0x3d
     fe8:	ce ac       	ldd	r12, Y+62	; 0x3e
     fea:	df ac       	ldd	r13, Y+63	; 0x3f
     fec:	25 97       	sbiw	r28, 0x05	; 5
     fee:	a9 a2       	std	Y+33, r10	; 0x21
     ff0:	ba a2       	std	Y+34, r11	; 0x22
     ff2:	cb a2       	std	Y+35, r12	; 0x23
     ff4:	dc a2       	std	Y+36, r13	; 0x24
     ff6:	6d a2       	std	Y+37, r6	; 0x25
     ff8:	7e a2       	std	Y+38, r7	; 0x26
     ffa:	8f a2       	std	Y+39, r8	; 0x27
     ffc:	98 a6       	std	Y+40, r9	; 0x28
     ffe:	22 96       	adiw	r28, 0x02	; 2
    1000:	2f ad       	ldd	r18, Y+63	; 0x3f
    1002:	22 97       	sbiw	r28, 0x02	; 2
    1004:	3a a1       	ldd	r19, Y+34	; 0x22
    1006:	4b a1       	ldd	r20, Y+35	; 0x23
    1008:	5c a1       	ldd	r21, Y+36	; 0x24
    100a:	66 2d       	mov	r22, r6
    100c:	7e a1       	ldd	r23, Y+38	; 0x26
    100e:	df a0       	ldd	r13, Y+39	; 0x27
    1010:	98 a5       	ldd	r25, Y+40	; 0x28
    1012:	e1 96       	adiw	r28, 0x31	; 49
    1014:	ec ac       	ldd	r14, Y+60	; 0x3c
    1016:	fd ac       	ldd	r15, Y+61	; 0x3d
    1018:	0e ad       	ldd	r16, Y+62	; 0x3e
    101a:	1f ad       	ldd	r17, Y+63	; 0x3f
    101c:	e1 97       	sbiw	r28, 0x31	; 49
    101e:	e1 14       	cp	r14, r1
    1020:	f1 04       	cpc	r15, r1
    1022:	01 05       	cpc	r16, r1
    1024:	11 05       	cpc	r17, r1
    1026:	09 f4       	brne	.+2      	; 0x102a <__stack+0x7cb>
    1028:	56 c0       	rjmp	.+172    	; 0x10d6 <__stack+0x877>
    102a:	21 95       	neg	r18
    102c:	81 e0       	ldi	r24, 0x01	; 1
    102e:	12 16       	cp	r1, r18
    1030:	08 f0       	brcs	.+2      	; 0x1034 <__stack+0x7d5>
    1032:	80 e0       	ldi	r24, 0x00	; 0
    1034:	31 95       	neg	r19
    1036:	e1 e0       	ldi	r30, 0x01	; 1
    1038:	13 16       	cp	r1, r19
    103a:	08 f0       	brcs	.+2      	; 0x103e <__stack+0x7df>
    103c:	e0 e0       	ldi	r30, 0x00	; 0
    103e:	93 2e       	mov	r9, r19
    1040:	98 1a       	sub	r9, r24
    1042:	81 e0       	ldi	r24, 0x01	; 1
    1044:	39 15       	cp	r19, r9
    1046:	08 f0       	brcs	.+2      	; 0x104a <__stack+0x7eb>
    1048:	80 e0       	ldi	r24, 0x00	; 0
    104a:	e8 2b       	or	r30, r24
    104c:	41 95       	neg	r20
    104e:	f1 e0       	ldi	r31, 0x01	; 1
    1050:	14 16       	cp	r1, r20
    1052:	08 f0       	brcs	.+2      	; 0x1056 <__stack+0x7f7>
    1054:	f0 e0       	ldi	r31, 0x00	; 0
    1056:	a4 2e       	mov	r10, r20
    1058:	ae 1a       	sub	r10, r30
    105a:	81 e0       	ldi	r24, 0x01	; 1
    105c:	4a 15       	cp	r20, r10
    105e:	08 f0       	brcs	.+2      	; 0x1062 <__stack+0x803>
    1060:	80 e0       	ldi	r24, 0x00	; 0
    1062:	f8 2b       	or	r31, r24
    1064:	51 95       	neg	r21
    1066:	e1 e0       	ldi	r30, 0x01	; 1
    1068:	15 16       	cp	r1, r21
    106a:	08 f0       	brcs	.+2      	; 0x106e <__stack+0x80f>
    106c:	e0 e0       	ldi	r30, 0x00	; 0
    106e:	b5 2e       	mov	r11, r21
    1070:	bf 1a       	sub	r11, r31
    1072:	81 e0       	ldi	r24, 0x01	; 1
    1074:	5b 15       	cp	r21, r11
    1076:	08 f0       	brcs	.+2      	; 0x107a <__stack+0x81b>
    1078:	80 e0       	ldi	r24, 0x00	; 0
    107a:	e8 2b       	or	r30, r24
    107c:	61 95       	neg	r22
    107e:	f1 e0       	ldi	r31, 0x01	; 1
    1080:	16 16       	cp	r1, r22
    1082:	08 f0       	brcs	.+2      	; 0x1086 <__stack+0x827>
    1084:	f0 e0       	ldi	r31, 0x00	; 0
    1086:	a6 2f       	mov	r26, r22
    1088:	ae 1b       	sub	r26, r30
    108a:	81 e0       	ldi	r24, 0x01	; 1
    108c:	6a 17       	cp	r22, r26
    108e:	08 f0       	brcs	.+2      	; 0x1092 <__stack+0x833>
    1090:	80 e0       	ldi	r24, 0x00	; 0
    1092:	f8 2b       	or	r31, r24
    1094:	71 95       	neg	r23
    1096:	e1 e0       	ldi	r30, 0x01	; 1
    1098:	17 16       	cp	r1, r23
    109a:	08 f0       	brcs	.+2      	; 0x109e <__stack+0x83f>
    109c:	e0 e0       	ldi	r30, 0x00	; 0
    109e:	c7 2e       	mov	r12, r23
    10a0:	cf 1a       	sub	r12, r31
    10a2:	81 e0       	ldi	r24, 0x01	; 1
    10a4:	7c 15       	cp	r23, r12
    10a6:	08 f0       	brcs	.+2      	; 0x10aa <__stack+0x84b>
    10a8:	80 e0       	ldi	r24, 0x00	; 0
    10aa:	e8 2b       	or	r30, r24
    10ac:	8d 2d       	mov	r24, r13
    10ae:	81 95       	neg	r24
    10b0:	f1 e0       	ldi	r31, 0x01	; 1
    10b2:	18 16       	cp	r1, r24
    10b4:	08 f0       	brcs	.+2      	; 0x10b8 <__stack+0x859>
    10b6:	f0 e0       	ldi	r31, 0x00	; 0
    10b8:	d8 2e       	mov	r13, r24
    10ba:	de 1a       	sub	r13, r30
    10bc:	e1 e0       	ldi	r30, 0x01	; 1
    10be:	8d 15       	cp	r24, r13
    10c0:	08 f0       	brcs	.+2      	; 0x10c4 <__stack+0x865>
    10c2:	e0 e0       	ldi	r30, 0x00	; 0
    10c4:	fe 2b       	or	r31, r30
    10c6:	89 2f       	mov	r24, r25
    10c8:	81 95       	neg	r24
    10ca:	39 2d       	mov	r19, r9
    10cc:	a5 01       	movw	r20, r10
    10ce:	6a 2f       	mov	r22, r26
    10d0:	7c 2d       	mov	r23, r12
    10d2:	98 2f       	mov	r25, r24
    10d4:	9f 1b       	sub	r25, r31
    10d6:	8d 2d       	mov	r24, r13
    10d8:	ce 58       	subi	r28, 0x8E	; 142
    10da:	df 4f       	sbci	r29, 0xFF	; 255
    10dc:	e2 e1       	ldi	r30, 0x12	; 18
    10de:	0c 94 54 22 	jmp	0x44a8	; 0x44a8 <__epilogue_restores__>

000010e2 <__moddi3>:
    10e2:	a7 e7       	ldi	r26, 0x77	; 119
    10e4:	b0 e0       	ldi	r27, 0x00	; 0
    10e6:	e7 e7       	ldi	r30, 0x77	; 119
    10e8:	f8 e0       	ldi	r31, 0x08	; 8
    10ea:	0c 94 38 22 	jmp	0x4470	; 0x4470 <__prologue_saves__>
    10ee:	98 2e       	mov	r9, r24
    10f0:	89 2e       	mov	r8, r25
    10f2:	71 2e       	mov	r7, r17
    10f4:	88 e0       	ldi	r24, 0x08	; 8
    10f6:	fe 01       	movw	r30, r28
    10f8:	31 96       	adiw	r30, 0x01	; 1
    10fa:	df 01       	movw	r26, r30
    10fc:	68 2e       	mov	r6, r24
    10fe:	1d 92       	st	X+, r1
    1100:	6a 94       	dec	r6
    1102:	e9 f7       	brne	.-6      	; 0x10fe <__moddi3+0x1c>
    1104:	29 83       	std	Y+1, r18	; 0x01
    1106:	3a 83       	std	Y+2, r19	; 0x02
    1108:	4b 83       	std	Y+3, r20	; 0x03
    110a:	5c 83       	std	Y+4, r21	; 0x04
    110c:	6d 83       	std	Y+5, r22	; 0x05
    110e:	7e 83       	std	Y+6, r23	; 0x06
    1110:	9f 82       	std	Y+7, r9	; 0x07
    1112:	98 87       	std	Y+8, r25	; 0x08
    1114:	fe 01       	movw	r30, r28
    1116:	39 96       	adiw	r30, 0x09	; 9
    1118:	df 01       	movw	r26, r30
    111a:	1d 92       	st	X+, r1
    111c:	8a 95       	dec	r24
    111e:	e9 f7       	brne	.-6      	; 0x111a <__moddi3+0x38>
    1120:	a9 86       	std	Y+9, r10	; 0x09
    1122:	ba 86       	std	Y+10, r11	; 0x0a
    1124:	cb 86       	std	Y+11, r12	; 0x0b
    1126:	dc 86       	std	Y+12, r13	; 0x0c
    1128:	ed 86       	std	Y+13, r14	; 0x0d
    112a:	fe 86       	std	Y+14, r15	; 0x0e
    112c:	0f 87       	std	Y+15, r16	; 0x0f
    112e:	18 8b       	std	Y+16, r17	; 0x10
    1130:	8d 81       	ldd	r24, Y+5	; 0x05
    1132:	9e 81       	ldd	r25, Y+6	; 0x06
    1134:	af 81       	ldd	r26, Y+7	; 0x07
    1136:	b8 85       	ldd	r27, Y+8	; 0x08
    1138:	b7 fd       	sbrc	r27, 7
    113a:	07 c0       	rjmp	.+14     	; 0x114a <__moddi3+0x68>
    113c:	e1 96       	adiw	r28, 0x31	; 49
    113e:	1c ae       	std	Y+60, r1	; 0x3c
    1140:	1d ae       	std	Y+61, r1	; 0x3d
    1142:	1e ae       	std	Y+62, r1	; 0x3e
    1144:	1f ae       	std	Y+63, r1	; 0x3f
    1146:	e1 97       	sbiw	r28, 0x31	; 49
    1148:	64 c0       	rjmp	.+200    	; 0x1212 <__moddi3+0x130>
    114a:	21 95       	neg	r18
    114c:	81 e0       	ldi	r24, 0x01	; 1
    114e:	12 16       	cp	r1, r18
    1150:	08 f0       	brcs	.+2      	; 0x1154 <__moddi3+0x72>
    1152:	80 e0       	ldi	r24, 0x00	; 0
    1154:	31 95       	neg	r19
    1156:	91 e0       	ldi	r25, 0x01	; 1
    1158:	13 16       	cp	r1, r19
    115a:	08 f0       	brcs	.+2      	; 0x115e <__moddi3+0x7c>
    115c:	90 e0       	ldi	r25, 0x00	; 0
    115e:	b3 2f       	mov	r27, r19
    1160:	b8 1b       	sub	r27, r24
    1162:	81 e0       	ldi	r24, 0x01	; 1
    1164:	3b 17       	cp	r19, r27
    1166:	08 f0       	brcs	.+2      	; 0x116a <__moddi3+0x88>
    1168:	80 e0       	ldi	r24, 0x00	; 0
    116a:	98 2b       	or	r25, r24
    116c:	41 95       	neg	r20
    116e:	31 e0       	ldi	r19, 0x01	; 1
    1170:	14 16       	cp	r1, r20
    1172:	08 f0       	brcs	.+2      	; 0x1176 <__moddi3+0x94>
    1174:	30 e0       	ldi	r19, 0x00	; 0
    1176:	a4 2f       	mov	r26, r20
    1178:	a9 1b       	sub	r26, r25
    117a:	81 e0       	ldi	r24, 0x01	; 1
    117c:	4a 17       	cp	r20, r26
    117e:	08 f0       	brcs	.+2      	; 0x1182 <__moddi3+0xa0>
    1180:	80 e0       	ldi	r24, 0x00	; 0
    1182:	38 2b       	or	r19, r24
    1184:	51 95       	neg	r21
    1186:	91 e0       	ldi	r25, 0x01	; 1
    1188:	15 16       	cp	r1, r21
    118a:	08 f0       	brcs	.+2      	; 0x118e <__moddi3+0xac>
    118c:	90 e0       	ldi	r25, 0x00	; 0
    118e:	f5 2f       	mov	r31, r21
    1190:	f3 1b       	sub	r31, r19
    1192:	81 e0       	ldi	r24, 0x01	; 1
    1194:	5f 17       	cp	r21, r31
    1196:	08 f0       	brcs	.+2      	; 0x119a <__moddi3+0xb8>
    1198:	80 e0       	ldi	r24, 0x00	; 0
    119a:	98 2b       	or	r25, r24
    119c:	61 95       	neg	r22
    119e:	31 e0       	ldi	r19, 0x01	; 1
    11a0:	16 16       	cp	r1, r22
    11a2:	08 f0       	brcs	.+2      	; 0x11a6 <__moddi3+0xc4>
    11a4:	30 e0       	ldi	r19, 0x00	; 0
    11a6:	e6 2f       	mov	r30, r22
    11a8:	e9 1b       	sub	r30, r25
    11aa:	81 e0       	ldi	r24, 0x01	; 1
    11ac:	6e 17       	cp	r22, r30
    11ae:	08 f0       	brcs	.+2      	; 0x11b2 <__moddi3+0xd0>
    11b0:	80 e0       	ldi	r24, 0x00	; 0
    11b2:	38 2b       	or	r19, r24
    11b4:	71 95       	neg	r23
    11b6:	41 e0       	ldi	r20, 0x01	; 1
    11b8:	17 16       	cp	r1, r23
    11ba:	08 f0       	brcs	.+2      	; 0x11be <__moddi3+0xdc>
    11bc:	40 e0       	ldi	r20, 0x00	; 0
    11be:	57 2f       	mov	r21, r23
    11c0:	53 1b       	sub	r21, r19
    11c2:	81 e0       	ldi	r24, 0x01	; 1
    11c4:	75 17       	cp	r23, r21
    11c6:	08 f0       	brcs	.+2      	; 0x11ca <__moddi3+0xe8>
    11c8:	80 e0       	ldi	r24, 0x00	; 0
    11ca:	48 2b       	or	r20, r24
    11cc:	89 2d       	mov	r24, r9
    11ce:	81 95       	neg	r24
    11d0:	91 e0       	ldi	r25, 0x01	; 1
    11d2:	18 16       	cp	r1, r24
    11d4:	08 f0       	brcs	.+2      	; 0x11d8 <__moddi3+0xf6>
    11d6:	90 e0       	ldi	r25, 0x00	; 0
    11d8:	68 2e       	mov	r6, r24
    11da:	64 1a       	sub	r6, r20
    11dc:	46 2d       	mov	r20, r6
    11de:	31 e0       	ldi	r19, 0x01	; 1
    11e0:	86 15       	cp	r24, r6
    11e2:	08 f0       	brcs	.+2      	; 0x11e6 <__moddi3+0x104>
    11e4:	30 e0       	ldi	r19, 0x00	; 0
    11e6:	93 2b       	or	r25, r19
    11e8:	88 2d       	mov	r24, r8
    11ea:	81 95       	neg	r24
    11ec:	89 1b       	sub	r24, r25
    11ee:	29 83       	std	Y+1, r18	; 0x01
    11f0:	ba 83       	std	Y+2, r27	; 0x02
    11f2:	ab 83       	std	Y+3, r26	; 0x03
    11f4:	fc 83       	std	Y+4, r31	; 0x04
    11f6:	ed 83       	std	Y+5, r30	; 0x05
    11f8:	5e 83       	std	Y+6, r21	; 0x06
    11fa:	4f 83       	std	Y+7, r20	; 0x07
    11fc:	88 87       	std	Y+8, r24	; 0x08
    11fe:	2f ef       	ldi	r18, 0xFF	; 255
    1200:	3f ef       	ldi	r19, 0xFF	; 255
    1202:	4f ef       	ldi	r20, 0xFF	; 255
    1204:	5f ef       	ldi	r21, 0xFF	; 255
    1206:	e1 96       	adiw	r28, 0x31	; 49
    1208:	2c af       	std	Y+60, r18	; 0x3c
    120a:	3d af       	std	Y+61, r19	; 0x3d
    120c:	4e af       	std	Y+62, r20	; 0x3e
    120e:	5f af       	std	Y+63, r21	; 0x3f
    1210:	e1 97       	sbiw	r28, 0x31	; 49
    1212:	8d 85       	ldd	r24, Y+13	; 0x0d
    1214:	9e 85       	ldd	r25, Y+14	; 0x0e
    1216:	af 85       	ldd	r26, Y+15	; 0x0f
    1218:	b8 89       	ldd	r27, Y+16	; 0x10
    121a:	b7 ff       	sbrs	r27, 7
    121c:	5a c0       	rjmp	.+180    	; 0x12d2 <__moddi3+0x1f0>
    121e:	a1 94       	neg	r10
    1220:	81 e0       	ldi	r24, 0x01	; 1
    1222:	1a 14       	cp	r1, r10
    1224:	08 f0       	brcs	.+2      	; 0x1228 <__moddi3+0x146>
    1226:	80 e0       	ldi	r24, 0x00	; 0
    1228:	b1 94       	neg	r11
    122a:	91 e0       	ldi	r25, 0x01	; 1
    122c:	1b 14       	cp	r1, r11
    122e:	08 f0       	brcs	.+2      	; 0x1232 <__moddi3+0x150>
    1230:	90 e0       	ldi	r25, 0x00	; 0
    1232:	6b 2d       	mov	r22, r11
    1234:	68 1b       	sub	r22, r24
    1236:	81 e0       	ldi	r24, 0x01	; 1
    1238:	b6 16       	cp	r11, r22
    123a:	08 f0       	brcs	.+2      	; 0x123e <__moddi3+0x15c>
    123c:	80 e0       	ldi	r24, 0x00	; 0
    123e:	98 2b       	or	r25, r24
    1240:	c1 94       	neg	r12
    1242:	21 e0       	ldi	r18, 0x01	; 1
    1244:	1c 14       	cp	r1, r12
    1246:	08 f0       	brcs	.+2      	; 0x124a <__moddi3+0x168>
    1248:	20 e0       	ldi	r18, 0x00	; 0
    124a:	5c 2d       	mov	r21, r12
    124c:	59 1b       	sub	r21, r25
    124e:	81 e0       	ldi	r24, 0x01	; 1
    1250:	c5 16       	cp	r12, r21
    1252:	08 f0       	brcs	.+2      	; 0x1256 <__moddi3+0x174>
    1254:	80 e0       	ldi	r24, 0x00	; 0
    1256:	28 2b       	or	r18, r24
    1258:	d1 94       	neg	r13
    125a:	91 e0       	ldi	r25, 0x01	; 1
    125c:	1d 14       	cp	r1, r13
    125e:	08 f0       	brcs	.+2      	; 0x1262 <__moddi3+0x180>
    1260:	90 e0       	ldi	r25, 0x00	; 0
    1262:	4d 2d       	mov	r20, r13
    1264:	42 1b       	sub	r20, r18
    1266:	81 e0       	ldi	r24, 0x01	; 1
    1268:	d4 16       	cp	r13, r20
    126a:	08 f0       	brcs	.+2      	; 0x126e <__moddi3+0x18c>
    126c:	80 e0       	ldi	r24, 0x00	; 0
    126e:	98 2b       	or	r25, r24
    1270:	e1 94       	neg	r14
    1272:	21 e0       	ldi	r18, 0x01	; 1
    1274:	1e 14       	cp	r1, r14
    1276:	08 f0       	brcs	.+2      	; 0x127a <__moddi3+0x198>
    1278:	20 e0       	ldi	r18, 0x00	; 0
    127a:	3e 2d       	mov	r19, r14
    127c:	39 1b       	sub	r19, r25
    127e:	81 e0       	ldi	r24, 0x01	; 1
    1280:	e3 16       	cp	r14, r19
    1282:	08 f0       	brcs	.+2      	; 0x1286 <__moddi3+0x1a4>
    1284:	80 e0       	ldi	r24, 0x00	; 0
    1286:	28 2b       	or	r18, r24
    1288:	f1 94       	neg	r15
    128a:	91 e0       	ldi	r25, 0x01	; 1
    128c:	1f 14       	cp	r1, r15
    128e:	08 f0       	brcs	.+2      	; 0x1292 <__moddi3+0x1b0>
    1290:	90 e0       	ldi	r25, 0x00	; 0
    1292:	7f 2d       	mov	r23, r15
    1294:	72 1b       	sub	r23, r18
    1296:	27 2f       	mov	r18, r23
    1298:	81 e0       	ldi	r24, 0x01	; 1
    129a:	f7 16       	cp	r15, r23
    129c:	08 f0       	brcs	.+2      	; 0x12a0 <__moddi3+0x1be>
    129e:	80 e0       	ldi	r24, 0x00	; 0
    12a0:	98 2b       	or	r25, r24
    12a2:	01 95       	neg	r16
    12a4:	11 e0       	ldi	r17, 0x01	; 1
    12a6:	10 16       	cp	r1, r16
    12a8:	08 f0       	brcs	.+2      	; 0x12ac <__moddi3+0x1ca>
    12aa:	10 e0       	ldi	r17, 0x00	; 0
    12ac:	80 2f       	mov	r24, r16
    12ae:	89 1b       	sub	r24, r25
    12b0:	98 2f       	mov	r25, r24
    12b2:	81 e0       	ldi	r24, 0x01	; 1
    12b4:	09 17       	cp	r16, r25
    12b6:	08 f0       	brcs	.+2      	; 0x12ba <__moddi3+0x1d8>
    12b8:	80 e0       	ldi	r24, 0x00	; 0
    12ba:	18 2b       	or	r17, r24
    12bc:	87 2d       	mov	r24, r7
    12be:	81 95       	neg	r24
    12c0:	81 1b       	sub	r24, r17
    12c2:	a9 86       	std	Y+9, r10	; 0x09
    12c4:	6a 87       	std	Y+10, r22	; 0x0a
    12c6:	5b 87       	std	Y+11, r21	; 0x0b
    12c8:	4c 87       	std	Y+12, r20	; 0x0c
    12ca:	3d 87       	std	Y+13, r19	; 0x0d
    12cc:	2e 87       	std	Y+14, r18	; 0x0e
    12ce:	9f 87       	std	Y+15, r25	; 0x0f
    12d0:	88 8b       	std	Y+16, r24	; 0x10
    12d2:	99 81       	ldd	r25, Y+1	; 0x01
    12d4:	2a 81       	ldd	r18, Y+2	; 0x02
    12d6:	3b 81       	ldd	r19, Y+3	; 0x03
    12d8:	4c 81       	ldd	r20, Y+4	; 0x04
    12da:	5d 81       	ldd	r21, Y+5	; 0x05
    12dc:	6e 81       	ldd	r22, Y+6	; 0x06
    12de:	7f 81       	ldd	r23, Y+7	; 0x07
    12e0:	a8 85       	ldd	r26, Y+8	; 0x08
    12e2:	b9 85       	ldd	r27, Y+9	; 0x09
    12e4:	1a 85       	ldd	r17, Y+10	; 0x0a
    12e6:	0b 85       	ldd	r16, Y+11	; 0x0b
    12e8:	fc 84       	ldd	r15, Y+12	; 0x0c
    12ea:	ed 84       	ldd	r14, Y+13	; 0x0d
    12ec:	de 84       	ldd	r13, Y+14	; 0x0e
    12ee:	cf 84       	ldd	r12, Y+15	; 0x0f
    12f0:	b8 88       	ldd	r11, Y+16	; 0x10
    12f2:	88 e0       	ldi	r24, 0x08	; 8
    12f4:	e9 e1       	ldi	r30, 0x19	; 25
    12f6:	8e 2e       	mov	r8, r30
    12f8:	91 2c       	mov	r9, r1
    12fa:	8c 0e       	add	r8, r28
    12fc:	9d 1e       	adc	r9, r29
    12fe:	f4 01       	movw	r30, r8
    1300:	68 2e       	mov	r6, r24
    1302:	11 92       	st	Z+, r1
    1304:	6a 94       	dec	r6
    1306:	e9 f7       	brne	.-6      	; 0x1302 <__moddi3+0x220>
    1308:	99 8f       	std	Y+25, r25	; 0x19
    130a:	2a 8f       	std	Y+26, r18	; 0x1a
    130c:	3b 8f       	std	Y+27, r19	; 0x1b
    130e:	4c 8f       	std	Y+28, r20	; 0x1c
    1310:	5d 8f       	std	Y+29, r21	; 0x1d
    1312:	6e 8f       	std	Y+30, r22	; 0x1e
    1314:	7f 8f       	std	Y+31, r23	; 0x1f
    1316:	a8 a3       	std	Y+32, r26	; 0x20
    1318:	9e 01       	movw	r18, r28
    131a:	2f 5d       	subi	r18, 0xDF	; 223
    131c:	3f 4f       	sbci	r19, 0xFF	; 255
    131e:	f9 01       	movw	r30, r18
    1320:	11 92       	st	Z+, r1
    1322:	8a 95       	dec	r24
    1324:	e9 f7       	brne	.-6      	; 0x1320 <__moddi3+0x23e>
    1326:	b9 a3       	std	Y+33, r27	; 0x21
    1328:	1a a3       	std	Y+34, r17	; 0x22
    132a:	0b a3       	std	Y+35, r16	; 0x23
    132c:	fc a2       	std	Y+36, r15	; 0x24
    132e:	ed a2       	std	Y+37, r14	; 0x25
    1330:	de a2       	std	Y+38, r13	; 0x26
    1332:	cf a2       	std	Y+39, r12	; 0x27
    1334:	b8 a6       	std	Y+40, r11	; 0x28
    1336:	29 a0       	ldd	r2, Y+33	; 0x21
    1338:	3a a0       	ldd	r3, Y+34	; 0x22
    133a:	4b a0       	ldd	r4, Y+35	; 0x23
    133c:	5c a0       	ldd	r5, Y+36	; 0x24
    133e:	ad a0       	ldd	r10, Y+37	; 0x25
    1340:	be a0       	ldd	r11, Y+38	; 0x26
    1342:	cf a0       	ldd	r12, Y+39	; 0x27
    1344:	d8 a4       	ldd	r13, Y+40	; 0x28
    1346:	49 8d       	ldd	r20, Y+25	; 0x19
    1348:	5a 8d       	ldd	r21, Y+26	; 0x1a
    134a:	6b 8d       	ldd	r22, Y+27	; 0x1b
    134c:	7c 8d       	ldd	r23, Y+28	; 0x1c
    134e:	e5 96       	adiw	r28, 0x35	; 53
    1350:	4f af       	std	Y+63, r20	; 0x3f
    1352:	e5 97       	sbiw	r28, 0x35	; 53
    1354:	e6 96       	adiw	r28, 0x36	; 54
    1356:	5f af       	std	Y+63, r21	; 0x3f
    1358:	e6 97       	sbiw	r28, 0x36	; 54
    135a:	e7 96       	adiw	r28, 0x37	; 55
    135c:	6f af       	std	Y+63, r22	; 0x3f
    135e:	e7 97       	sbiw	r28, 0x37	; 55
    1360:	e8 96       	adiw	r28, 0x38	; 56
    1362:	7f af       	std	Y+63, r23	; 0x3f
    1364:	e8 97       	sbiw	r28, 0x38	; 56
    1366:	e8 96       	adiw	r28, 0x38	; 56
    1368:	6c ac       	ldd	r6, Y+60	; 0x3c
    136a:	7d ac       	ldd	r7, Y+61	; 0x3d
    136c:	8e ac       	ldd	r8, Y+62	; 0x3e
    136e:	9f ac       	ldd	r9, Y+63	; 0x3f
    1370:	e8 97       	sbiw	r28, 0x38	; 56
    1372:	2d 96       	adiw	r28, 0x0d	; 13
    1374:	6c ae       	std	Y+60, r6	; 0x3c
    1376:	7d ae       	std	Y+61, r7	; 0x3d
    1378:	8e ae       	std	Y+62, r8	; 0x3e
    137a:	9f ae       	std	Y+63, r9	; 0x3f
    137c:	2d 97       	sbiw	r28, 0x0d	; 13
    137e:	8d 8d       	ldd	r24, Y+29	; 0x1d
    1380:	9e 8d       	ldd	r25, Y+30	; 0x1e
    1382:	2f 8d       	ldd	r18, Y+31	; 0x1f
    1384:	38 a1       	ldd	r19, Y+32	; 0x20
    1386:	3c 01       	movw	r6, r24
    1388:	49 01       	movw	r8, r18
    138a:	61 96       	adiw	r28, 0x11	; 17
    138c:	6c ae       	std	Y+60, r6	; 0x3c
    138e:	7d ae       	std	Y+61, r7	; 0x3d
    1390:	8e ae       	std	Y+62, r8	; 0x3e
    1392:	9f ae       	std	Y+63, r9	; 0x3f
    1394:	61 97       	sbiw	r28, 0x11	; 17
    1396:	a1 14       	cp	r10, r1
    1398:	b1 04       	cpc	r11, r1
    139a:	c1 04       	cpc	r12, r1
    139c:	d1 04       	cpc	r13, r1
    139e:	09 f0       	breq	.+2      	; 0x13a2 <__moddi3+0x2c0>
    13a0:	28 c3       	rjmp	.+1616   	; 0x19f2 <__moddi3+0x910>
    13a2:	62 14       	cp	r6, r2
    13a4:	73 04       	cpc	r7, r3
    13a6:	84 04       	cpc	r8, r4
    13a8:	95 04       	cpc	r9, r5
    13aa:	08 f0       	brcs	.+2      	; 0x13ae <__moddi3+0x2cc>
    13ac:	0e c1       	rjmp	.+540    	; 0x15ca <__moddi3+0x4e8>
    13ae:	00 e0       	ldi	r16, 0x00	; 0
    13b0:	20 16       	cp	r2, r16
    13b2:	00 e0       	ldi	r16, 0x00	; 0
    13b4:	30 06       	cpc	r3, r16
    13b6:	01 e0       	ldi	r16, 0x01	; 1
    13b8:	40 06       	cpc	r4, r16
    13ba:	00 e0       	ldi	r16, 0x00	; 0
    13bc:	50 06       	cpc	r5, r16
    13be:	88 f4       	brcc	.+34     	; 0x13e2 <__moddi3+0x300>
    13c0:	1f ef       	ldi	r17, 0xFF	; 255
    13c2:	21 16       	cp	r2, r17
    13c4:	31 04       	cpc	r3, r1
    13c6:	41 04       	cpc	r4, r1
    13c8:	51 04       	cpc	r5, r1
    13ca:	39 f0       	breq	.+14     	; 0x13da <__moddi3+0x2f8>
    13cc:	30 f0       	brcs	.+12     	; 0x13da <__moddi3+0x2f8>
    13ce:	88 e0       	ldi	r24, 0x08	; 8
    13d0:	e8 2e       	mov	r14, r24
    13d2:	f1 2c       	mov	r15, r1
    13d4:	01 2d       	mov	r16, r1
    13d6:	11 2d       	mov	r17, r1
    13d8:	18 c0       	rjmp	.+48     	; 0x140a <__moddi3+0x328>
    13da:	ee 24       	eor	r14, r14
    13dc:	ff 24       	eor	r15, r15
    13de:	87 01       	movw	r16, r14
    13e0:	14 c0       	rjmp	.+40     	; 0x140a <__moddi3+0x328>
    13e2:	20 e0       	ldi	r18, 0x00	; 0
    13e4:	22 16       	cp	r2, r18
    13e6:	20 e0       	ldi	r18, 0x00	; 0
    13e8:	32 06       	cpc	r3, r18
    13ea:	20 e0       	ldi	r18, 0x00	; 0
    13ec:	42 06       	cpc	r4, r18
    13ee:	21 e0       	ldi	r18, 0x01	; 1
    13f0:	52 06       	cpc	r5, r18
    13f2:	30 f0       	brcs	.+12     	; 0x1400 <__moddi3+0x31e>
    13f4:	b8 e1       	ldi	r27, 0x18	; 24
    13f6:	eb 2e       	mov	r14, r27
    13f8:	f1 2c       	mov	r15, r1
    13fa:	01 2d       	mov	r16, r1
    13fc:	11 2d       	mov	r17, r1
    13fe:	05 c0       	rjmp	.+10     	; 0x140a <__moddi3+0x328>
    1400:	a0 e1       	ldi	r26, 0x10	; 16
    1402:	ea 2e       	mov	r14, r26
    1404:	f1 2c       	mov	r15, r1
    1406:	01 2d       	mov	r16, r1
    1408:	11 2d       	mov	r17, r1
    140a:	d2 01       	movw	r26, r4
    140c:	c1 01       	movw	r24, r2
    140e:	0e 2c       	mov	r0, r14
    1410:	04 c0       	rjmp	.+8      	; 0x141a <__moddi3+0x338>
    1412:	b6 95       	lsr	r27
    1414:	a7 95       	ror	r26
    1416:	97 95       	ror	r25
    1418:	87 95       	ror	r24
    141a:	0a 94       	dec	r0
    141c:	d2 f7       	brpl	.-12     	; 0x1412 <__moddi3+0x330>
    141e:	8b 59       	subi	r24, 0x9B	; 155
    1420:	9f 4f       	sbci	r25, 0xFF	; 255
    1422:	dc 01       	movw	r26, r24
    1424:	2c 91       	ld	r18, X
    1426:	80 e2       	ldi	r24, 0x20	; 32
    1428:	90 e0       	ldi	r25, 0x00	; 0
    142a:	a0 e0       	ldi	r26, 0x00	; 0
    142c:	b0 e0       	ldi	r27, 0x00	; 0
    142e:	8e 19       	sub	r24, r14
    1430:	9f 09       	sbc	r25, r15
    1432:	a0 0b       	sbc	r26, r16
    1434:	b1 0b       	sbc	r27, r17
    1436:	5c 01       	movw	r10, r24
    1438:	6d 01       	movw	r12, r26
    143a:	a2 1a       	sub	r10, r18
    143c:	b1 08       	sbc	r11, r1
    143e:	c1 08       	sbc	r12, r1
    1440:	d1 08       	sbc	r13, r1
    1442:	65 96       	adiw	r28, 0x15	; 21
    1444:	ac ae       	std	Y+60, r10	; 0x3c
    1446:	bd ae       	std	Y+61, r11	; 0x3d
    1448:	ce ae       	std	Y+62, r12	; 0x3e
    144a:	df ae       	std	Y+63, r13	; 0x3f
    144c:	65 97       	sbiw	r28, 0x15	; 21
    144e:	a1 14       	cp	r10, r1
    1450:	b1 04       	cpc	r11, r1
    1452:	c1 04       	cpc	r12, r1
    1454:	d1 04       	cpc	r13, r1
    1456:	09 f4       	brne	.+2      	; 0x145a <__moddi3+0x378>
    1458:	45 c0       	rjmp	.+138    	; 0x14e4 <__moddi3+0x402>
    145a:	62 96       	adiw	r28, 0x12	; 18
    145c:	6f ad       	ldd	r22, Y+63	; 0x3f
    145e:	62 97       	sbiw	r28, 0x12	; 18
    1460:	06 2e       	mov	r0, r22
    1462:	04 c0       	rjmp	.+8      	; 0x146c <__moddi3+0x38a>
    1464:	22 0c       	add	r2, r2
    1466:	33 1c       	adc	r3, r3
    1468:	44 1c       	adc	r4, r4
    146a:	55 1c       	adc	r5, r5
    146c:	0a 94       	dec	r0
    146e:	d2 f7       	brpl	.-12     	; 0x1464 <__moddi3+0x382>
    1470:	a4 01       	movw	r20, r8
    1472:	93 01       	movw	r18, r6
    1474:	06 2e       	mov	r0, r22
    1476:	04 c0       	rjmp	.+8      	; 0x1480 <__moddi3+0x39e>
    1478:	22 0f       	add	r18, r18
    147a:	33 1f       	adc	r19, r19
    147c:	44 1f       	adc	r20, r20
    147e:	55 1f       	adc	r21, r21
    1480:	0a 94       	dec	r0
    1482:	d2 f7       	brpl	.-12     	; 0x1478 <__moddi3+0x396>
    1484:	80 e2       	ldi	r24, 0x20	; 32
    1486:	90 e0       	ldi	r25, 0x00	; 0
    1488:	8a 19       	sub	r24, r10
    148a:	9b 09       	sbc	r25, r11
    148c:	e8 96       	adiw	r28, 0x38	; 56
    148e:	cc ac       	ldd	r12, Y+60	; 0x3c
    1490:	dd ac       	ldd	r13, Y+61	; 0x3d
    1492:	ee ac       	ldd	r14, Y+62	; 0x3e
    1494:	ff ac       	ldd	r15, Y+63	; 0x3f
    1496:	e8 97       	sbiw	r28, 0x38	; 56
    1498:	04 c0       	rjmp	.+8      	; 0x14a2 <__moddi3+0x3c0>
    149a:	f6 94       	lsr	r15
    149c:	e7 94       	ror	r14
    149e:	d7 94       	ror	r13
    14a0:	c7 94       	ror	r12
    14a2:	8a 95       	dec	r24
    14a4:	d2 f7       	brpl	.-12     	; 0x149a <__moddi3+0x3b8>
    14a6:	87 01       	movw	r16, r14
    14a8:	76 01       	movw	r14, r12
    14aa:	e2 2a       	or	r14, r18
    14ac:	f3 2a       	or	r15, r19
    14ae:	04 2b       	or	r16, r20
    14b0:	15 2b       	or	r17, r21
    14b2:	61 96       	adiw	r28, 0x11	; 17
    14b4:	ec ae       	std	Y+60, r14	; 0x3c
    14b6:	fd ae       	std	Y+61, r15	; 0x3d
    14b8:	0e af       	std	Y+62, r16	; 0x3e
    14ba:	1f af       	std	Y+63, r17	; 0x3f
    14bc:	61 97       	sbiw	r28, 0x11	; 17
    14be:	e8 96       	adiw	r28, 0x38	; 56
    14c0:	0c ad       	ldd	r16, Y+60	; 0x3c
    14c2:	1d ad       	ldd	r17, Y+61	; 0x3d
    14c4:	2e ad       	ldd	r18, Y+62	; 0x3e
    14c6:	3f ad       	ldd	r19, Y+63	; 0x3f
    14c8:	e8 97       	sbiw	r28, 0x38	; 56
    14ca:	04 c0       	rjmp	.+8      	; 0x14d4 <__moddi3+0x3f2>
    14cc:	00 0f       	add	r16, r16
    14ce:	11 1f       	adc	r17, r17
    14d0:	22 1f       	adc	r18, r18
    14d2:	33 1f       	adc	r19, r19
    14d4:	6a 95       	dec	r22
    14d6:	d2 f7       	brpl	.-12     	; 0x14cc <__moddi3+0x3ea>
    14d8:	2d 96       	adiw	r28, 0x0d	; 13
    14da:	0c af       	std	Y+60, r16	; 0x3c
    14dc:	1d af       	std	Y+61, r17	; 0x3d
    14de:	2e af       	std	Y+62, r18	; 0x3e
    14e0:	3f af       	std	Y+63, r19	; 0x3f
    14e2:	2d 97       	sbiw	r28, 0x0d	; 13
    14e4:	32 01       	movw	r6, r4
    14e6:	88 24       	eor	r8, r8
    14e8:	99 24       	eor	r9, r9
    14ea:	a2 01       	movw	r20, r4
    14ec:	91 01       	movw	r18, r2
    14ee:	40 70       	andi	r20, 0x00	; 0
    14f0:	50 70       	andi	r21, 0x00	; 0
    14f2:	69 96       	adiw	r28, 0x19	; 25
    14f4:	2c af       	std	Y+60, r18	; 0x3c
    14f6:	3d af       	std	Y+61, r19	; 0x3d
    14f8:	4e af       	std	Y+62, r20	; 0x3e
    14fa:	5f af       	std	Y+63, r21	; 0x3f
    14fc:	69 97       	sbiw	r28, 0x19	; 25
    14fe:	61 96       	adiw	r28, 0x11	; 17
    1500:	6c ad       	ldd	r22, Y+60	; 0x3c
    1502:	7d ad       	ldd	r23, Y+61	; 0x3d
    1504:	8e ad       	ldd	r24, Y+62	; 0x3e
    1506:	9f ad       	ldd	r25, Y+63	; 0x3f
    1508:	61 97       	sbiw	r28, 0x11	; 17
    150a:	a4 01       	movw	r20, r8
    150c:	93 01       	movw	r18, r6
    150e:	0e 94 16 22 	call	0x442c	; 0x442c <__udivmodsi4>
    1512:	7b 01       	movw	r14, r22
    1514:	8c 01       	movw	r16, r24
    1516:	61 96       	adiw	r28, 0x11	; 17
    1518:	6c ad       	ldd	r22, Y+60	; 0x3c
    151a:	7d ad       	ldd	r23, Y+61	; 0x3d
    151c:	8e ad       	ldd	r24, Y+62	; 0x3e
    151e:	9f ad       	ldd	r25, Y+63	; 0x3f
    1520:	61 97       	sbiw	r28, 0x11	; 17
    1522:	a4 01       	movw	r20, r8
    1524:	93 01       	movw	r18, r6
    1526:	0e 94 16 22 	call	0x442c	; 0x442c <__udivmodsi4>
    152a:	ca 01       	movw	r24, r20
    152c:	b9 01       	movw	r22, r18
    152e:	69 96       	adiw	r28, 0x19	; 25
    1530:	2c ad       	ldd	r18, Y+60	; 0x3c
    1532:	3d ad       	ldd	r19, Y+61	; 0x3d
    1534:	4e ad       	ldd	r20, Y+62	; 0x3e
    1536:	5f ad       	ldd	r21, Y+63	; 0x3f
    1538:	69 97       	sbiw	r28, 0x19	; 25
    153a:	0e 94 f7 21 	call	0x43ee	; 0x43ee <__mulsi3>
    153e:	9b 01       	movw	r18, r22
    1540:	ac 01       	movw	r20, r24
    1542:	87 01       	movw	r16, r14
    1544:	ff 24       	eor	r15, r15
    1546:	ee 24       	eor	r14, r14
    1548:	2d 96       	adiw	r28, 0x0d	; 13
    154a:	ac ac       	ldd	r10, Y+60	; 0x3c
    154c:	bd ac       	ldd	r11, Y+61	; 0x3d
    154e:	ce ac       	ldd	r12, Y+62	; 0x3e
    1550:	df ac       	ldd	r13, Y+63	; 0x3f
    1552:	2d 97       	sbiw	r28, 0x0d	; 13
    1554:	c6 01       	movw	r24, r12
    1556:	aa 27       	eor	r26, r26
    1558:	bb 27       	eor	r27, r27
    155a:	57 01       	movw	r10, r14
    155c:	68 01       	movw	r12, r16
    155e:	a8 2a       	or	r10, r24
    1560:	b9 2a       	or	r11, r25
    1562:	ca 2a       	or	r12, r26
    1564:	db 2a       	or	r13, r27
    1566:	a2 16       	cp	r10, r18
    1568:	b3 06       	cpc	r11, r19
    156a:	c4 06       	cpc	r12, r20
    156c:	d5 06       	cpc	r13, r21
    156e:	90 f4       	brcc	.+36     	; 0x1594 <__moddi3+0x4b2>
    1570:	a2 0c       	add	r10, r2
    1572:	b3 1c       	adc	r11, r3
    1574:	c4 1c       	adc	r12, r4
    1576:	d5 1c       	adc	r13, r5
    1578:	a2 14       	cp	r10, r2
    157a:	b3 04       	cpc	r11, r3
    157c:	c4 04       	cpc	r12, r4
    157e:	d5 04       	cpc	r13, r5
    1580:	48 f0       	brcs	.+18     	; 0x1594 <__moddi3+0x4b2>
    1582:	a2 16       	cp	r10, r18
    1584:	b3 06       	cpc	r11, r19
    1586:	c4 06       	cpc	r12, r20
    1588:	d5 06       	cpc	r13, r21
    158a:	20 f4       	brcc	.+8      	; 0x1594 <__moddi3+0x4b2>
    158c:	a2 0c       	add	r10, r2
    158e:	b3 1c       	adc	r11, r3
    1590:	c4 1c       	adc	r12, r4
    1592:	d5 1c       	adc	r13, r5
    1594:	a2 1a       	sub	r10, r18
    1596:	b3 0a       	sbc	r11, r19
    1598:	c4 0a       	sbc	r12, r20
    159a:	d5 0a       	sbc	r13, r21
    159c:	c6 01       	movw	r24, r12
    159e:	b5 01       	movw	r22, r10
    15a0:	a4 01       	movw	r20, r8
    15a2:	93 01       	movw	r18, r6
    15a4:	0e 94 16 22 	call	0x442c	; 0x442c <__udivmodsi4>
    15a8:	7b 01       	movw	r14, r22
    15aa:	8c 01       	movw	r16, r24
    15ac:	c6 01       	movw	r24, r12
    15ae:	b5 01       	movw	r22, r10
    15b0:	a4 01       	movw	r20, r8
    15b2:	93 01       	movw	r18, r6
    15b4:	0e 94 16 22 	call	0x442c	; 0x442c <__udivmodsi4>
    15b8:	ca 01       	movw	r24, r20
    15ba:	b9 01       	movw	r22, r18
    15bc:	69 96       	adiw	r28, 0x19	; 25
    15be:	2c ad       	ldd	r18, Y+60	; 0x3c
    15c0:	3d ad       	ldd	r19, Y+61	; 0x3d
    15c2:	4e ad       	ldd	r20, Y+62	; 0x3e
    15c4:	5f ad       	ldd	r21, Y+63	; 0x3f
    15c6:	69 97       	sbiw	r28, 0x19	; 25
    15c8:	c8 c1       	rjmp	.+912    	; 0x195a <__moddi3+0x878>
    15ca:	21 14       	cp	r2, r1
    15cc:	31 04       	cpc	r3, r1
    15ce:	41 04       	cpc	r4, r1
    15d0:	51 04       	cpc	r5, r1
    15d2:	71 f4       	brne	.+28     	; 0x15f0 <__moddi3+0x50e>
    15d4:	61 e0       	ldi	r22, 0x01	; 1
    15d6:	70 e0       	ldi	r23, 0x00	; 0
    15d8:	80 e0       	ldi	r24, 0x00	; 0
    15da:	90 e0       	ldi	r25, 0x00	; 0
    15dc:	20 e0       	ldi	r18, 0x00	; 0
    15de:	30 e0       	ldi	r19, 0x00	; 0
    15e0:	40 e0       	ldi	r20, 0x00	; 0
    15e2:	50 e0       	ldi	r21, 0x00	; 0
    15e4:	0e 94 16 22 	call	0x442c	; 0x442c <__udivmodsi4>
    15e8:	c9 01       	movw	r24, r18
    15ea:	da 01       	movw	r26, r20
    15ec:	1c 01       	movw	r2, r24
    15ee:	2d 01       	movw	r4, r26
    15f0:	00 e0       	ldi	r16, 0x00	; 0
    15f2:	20 16       	cp	r2, r16
    15f4:	00 e0       	ldi	r16, 0x00	; 0
    15f6:	30 06       	cpc	r3, r16
    15f8:	01 e0       	ldi	r16, 0x01	; 1
    15fa:	40 06       	cpc	r4, r16
    15fc:	00 e0       	ldi	r16, 0x00	; 0
    15fe:	50 06       	cpc	r5, r16
    1600:	88 f4       	brcc	.+34     	; 0x1624 <__moddi3+0x542>
    1602:	1f ef       	ldi	r17, 0xFF	; 255
    1604:	21 16       	cp	r2, r17
    1606:	31 04       	cpc	r3, r1
    1608:	41 04       	cpc	r4, r1
    160a:	51 04       	cpc	r5, r1
    160c:	39 f0       	breq	.+14     	; 0x161c <__moddi3+0x53a>
    160e:	30 f0       	brcs	.+12     	; 0x161c <__moddi3+0x53a>
    1610:	68 e0       	ldi	r22, 0x08	; 8
    1612:	e6 2e       	mov	r14, r22
    1614:	f1 2c       	mov	r15, r1
    1616:	01 2d       	mov	r16, r1
    1618:	11 2d       	mov	r17, r1
    161a:	18 c0       	rjmp	.+48     	; 0x164c <__moddi3+0x56a>
    161c:	ee 24       	eor	r14, r14
    161e:	ff 24       	eor	r15, r15
    1620:	87 01       	movw	r16, r14
    1622:	14 c0       	rjmp	.+40     	; 0x164c <__moddi3+0x56a>
    1624:	20 e0       	ldi	r18, 0x00	; 0
    1626:	22 16       	cp	r2, r18
    1628:	20 e0       	ldi	r18, 0x00	; 0
    162a:	32 06       	cpc	r3, r18
    162c:	20 e0       	ldi	r18, 0x00	; 0
    162e:	42 06       	cpc	r4, r18
    1630:	21 e0       	ldi	r18, 0x01	; 1
    1632:	52 06       	cpc	r5, r18
    1634:	30 f0       	brcs	.+12     	; 0x1642 <__moddi3+0x560>
    1636:	58 e1       	ldi	r21, 0x18	; 24
    1638:	e5 2e       	mov	r14, r21
    163a:	f1 2c       	mov	r15, r1
    163c:	01 2d       	mov	r16, r1
    163e:	11 2d       	mov	r17, r1
    1640:	05 c0       	rjmp	.+10     	; 0x164c <__moddi3+0x56a>
    1642:	40 e1       	ldi	r20, 0x10	; 16
    1644:	e4 2e       	mov	r14, r20
    1646:	f1 2c       	mov	r15, r1
    1648:	01 2d       	mov	r16, r1
    164a:	11 2d       	mov	r17, r1
    164c:	d2 01       	movw	r26, r4
    164e:	c1 01       	movw	r24, r2
    1650:	0e 2c       	mov	r0, r14
    1652:	04 c0       	rjmp	.+8      	; 0x165c <__moddi3+0x57a>
    1654:	b6 95       	lsr	r27
    1656:	a7 95       	ror	r26
    1658:	97 95       	ror	r25
    165a:	87 95       	ror	r24
    165c:	0a 94       	dec	r0
    165e:	d2 f7       	brpl	.-12     	; 0x1654 <__moddi3+0x572>
    1660:	8b 59       	subi	r24, 0x9B	; 155
    1662:	9f 4f       	sbci	r25, 0xFF	; 255
    1664:	dc 01       	movw	r26, r24
    1666:	2c 91       	ld	r18, X
    1668:	30 e2       	ldi	r19, 0x20	; 32
    166a:	a3 2e       	mov	r10, r19
    166c:	b1 2c       	mov	r11, r1
    166e:	c1 2c       	mov	r12, r1
    1670:	d1 2c       	mov	r13, r1
    1672:	d6 01       	movw	r26, r12
    1674:	c5 01       	movw	r24, r10
    1676:	8e 19       	sub	r24, r14
    1678:	9f 09       	sbc	r25, r15
    167a:	a0 0b       	sbc	r26, r16
    167c:	b1 0b       	sbc	r27, r17
    167e:	7c 01       	movw	r14, r24
    1680:	8d 01       	movw	r16, r26
    1682:	e2 1a       	sub	r14, r18
    1684:	f1 08       	sbc	r15, r1
    1686:	01 09       	sbc	r16, r1
    1688:	11 09       	sbc	r17, r1
    168a:	65 96       	adiw	r28, 0x15	; 21
    168c:	ec ae       	std	Y+60, r14	; 0x3c
    168e:	fd ae       	std	Y+61, r15	; 0x3d
    1690:	0e af       	std	Y+62, r16	; 0x3e
    1692:	1f af       	std	Y+63, r17	; 0x3f
    1694:	65 97       	sbiw	r28, 0x15	; 21
    1696:	e1 14       	cp	r14, r1
    1698:	f1 04       	cpc	r15, r1
    169a:	01 05       	cpc	r16, r1
    169c:	11 05       	cpc	r17, r1
    169e:	39 f4       	brne	.+14     	; 0x16ae <__moddi3+0x5cc>
    16a0:	64 01       	movw	r12, r8
    16a2:	53 01       	movw	r10, r6
    16a4:	a2 18       	sub	r10, r2
    16a6:	b3 08       	sbc	r11, r3
    16a8:	c4 08       	sbc	r12, r4
    16aa:	d5 08       	sbc	r13, r5
    16ac:	ec c0       	rjmp	.+472    	; 0x1886 <__moddi3+0x7a4>
    16ae:	62 96       	adiw	r28, 0x12	; 18
    16b0:	ff ac       	ldd	r15, Y+63	; 0x3f
    16b2:	62 97       	sbiw	r28, 0x12	; 18
    16b4:	e4 96       	adiw	r28, 0x34	; 52
    16b6:	ff ae       	std	Y+63, r15	; 0x3f
    16b8:	e4 97       	sbiw	r28, 0x34	; 52
    16ba:	0f 2c       	mov	r0, r15
    16bc:	04 c0       	rjmp	.+8      	; 0x16c6 <__moddi3+0x5e4>
    16be:	22 0c       	add	r2, r2
    16c0:	33 1c       	adc	r3, r3
    16c2:	44 1c       	adc	r4, r4
    16c4:	55 1c       	adc	r5, r5
    16c6:	0a 94       	dec	r0
    16c8:	d2 f7       	brpl	.-12     	; 0x16be <__moddi3+0x5dc>
    16ca:	8a 2d       	mov	r24, r10
    16cc:	8f 19       	sub	r24, r15
    16ce:	64 01       	movw	r12, r8
    16d0:	53 01       	movw	r10, r6
    16d2:	08 2e       	mov	r0, r24
    16d4:	04 c0       	rjmp	.+8      	; 0x16de <__moddi3+0x5fc>
    16d6:	d6 94       	lsr	r13
    16d8:	c7 94       	ror	r12
    16da:	b7 94       	ror	r11
    16dc:	a7 94       	ror	r10
    16de:	0a 94       	dec	r0
    16e0:	d2 f7       	brpl	.-12     	; 0x16d6 <__moddi3+0x5f4>
    16e2:	a4 01       	movw	r20, r8
    16e4:	93 01       	movw	r18, r6
    16e6:	04 c0       	rjmp	.+8      	; 0x16f0 <__moddi3+0x60e>
    16e8:	22 0f       	add	r18, r18
    16ea:	33 1f       	adc	r19, r19
    16ec:	44 1f       	adc	r20, r20
    16ee:	55 1f       	adc	r21, r21
    16f0:	fa 94       	dec	r15
    16f2:	d2 f7       	brpl	.-12     	; 0x16e8 <__moddi3+0x606>
    16f4:	e8 96       	adiw	r28, 0x38	; 56
    16f6:	6c ac       	ldd	r6, Y+60	; 0x3c
    16f8:	7d ac       	ldd	r7, Y+61	; 0x3d
    16fa:	8e ac       	ldd	r8, Y+62	; 0x3e
    16fc:	9f ac       	ldd	r9, Y+63	; 0x3f
    16fe:	e8 97       	sbiw	r28, 0x38	; 56
    1700:	04 c0       	rjmp	.+8      	; 0x170a <__moddi3+0x628>
    1702:	96 94       	lsr	r9
    1704:	87 94       	ror	r8
    1706:	77 94       	ror	r7
    1708:	67 94       	ror	r6
    170a:	8a 95       	dec	r24
    170c:	d2 f7       	brpl	.-12     	; 0x1702 <__moddi3+0x620>
    170e:	84 01       	movw	r16, r8
    1710:	73 01       	movw	r14, r6
    1712:	e2 2a       	or	r14, r18
    1714:	f3 2a       	or	r15, r19
    1716:	04 2b       	or	r16, r20
    1718:	15 2b       	or	r17, r21
    171a:	29 96       	adiw	r28, 0x09	; 9
    171c:	ec ae       	std	Y+60, r14	; 0x3c
    171e:	fd ae       	std	Y+61, r15	; 0x3d
    1720:	0e af       	std	Y+62, r16	; 0x3e
    1722:	1f af       	std	Y+63, r17	; 0x3f
    1724:	29 97       	sbiw	r28, 0x09	; 9
    1726:	32 01       	movw	r6, r4
    1728:	88 24       	eor	r8, r8
    172a:	99 24       	eor	r9, r9
    172c:	92 01       	movw	r18, r4
    172e:	81 01       	movw	r16, r2
    1730:	20 70       	andi	r18, 0x00	; 0
    1732:	30 70       	andi	r19, 0x00	; 0
    1734:	6d 96       	adiw	r28, 0x1d	; 29
    1736:	0c af       	std	Y+60, r16	; 0x3c
    1738:	1d af       	std	Y+61, r17	; 0x3d
    173a:	2e af       	std	Y+62, r18	; 0x3e
    173c:	3f af       	std	Y+63, r19	; 0x3f
    173e:	6d 97       	sbiw	r28, 0x1d	; 29
    1740:	c6 01       	movw	r24, r12
    1742:	b5 01       	movw	r22, r10
    1744:	a4 01       	movw	r20, r8
    1746:	93 01       	movw	r18, r6
    1748:	0e 94 16 22 	call	0x442c	; 0x442c <__udivmodsi4>
    174c:	7b 01       	movw	r14, r22
    174e:	8c 01       	movw	r16, r24
    1750:	c6 01       	movw	r24, r12
    1752:	b5 01       	movw	r22, r10
    1754:	a4 01       	movw	r20, r8
    1756:	93 01       	movw	r18, r6
    1758:	0e 94 16 22 	call	0x442c	; 0x442c <__udivmodsi4>
    175c:	ca 01       	movw	r24, r20
    175e:	b9 01       	movw	r22, r18
    1760:	6d 96       	adiw	r28, 0x1d	; 29
    1762:	2c ad       	ldd	r18, Y+60	; 0x3c
    1764:	3d ad       	ldd	r19, Y+61	; 0x3d
    1766:	4e ad       	ldd	r20, Y+62	; 0x3e
    1768:	5f ad       	ldd	r21, Y+63	; 0x3f
    176a:	6d 97       	sbiw	r28, 0x1d	; 29
    176c:	0e 94 f7 21 	call	0x43ee	; 0x43ee <__mulsi3>
    1770:	9b 01       	movw	r18, r22
    1772:	ac 01       	movw	r20, r24
    1774:	87 01       	movw	r16, r14
    1776:	ff 24       	eor	r15, r15
    1778:	ee 24       	eor	r14, r14
    177a:	29 96       	adiw	r28, 0x09	; 9
    177c:	ac ac       	ldd	r10, Y+60	; 0x3c
    177e:	bd ac       	ldd	r11, Y+61	; 0x3d
    1780:	ce ac       	ldd	r12, Y+62	; 0x3e
    1782:	df ac       	ldd	r13, Y+63	; 0x3f
    1784:	29 97       	sbiw	r28, 0x09	; 9
    1786:	c6 01       	movw	r24, r12
    1788:	aa 27       	eor	r26, r26
    178a:	bb 27       	eor	r27, r27
    178c:	5c 01       	movw	r10, r24
    178e:	6d 01       	movw	r12, r26
    1790:	ae 28       	or	r10, r14
    1792:	bf 28       	or	r11, r15
    1794:	c0 2a       	or	r12, r16
    1796:	d1 2a       	or	r13, r17
    1798:	a2 16       	cp	r10, r18
    179a:	b3 06       	cpc	r11, r19
    179c:	c4 06       	cpc	r12, r20
    179e:	d5 06       	cpc	r13, r21
    17a0:	90 f4       	brcc	.+36     	; 0x17c6 <__moddi3+0x6e4>
    17a2:	a2 0c       	add	r10, r2
    17a4:	b3 1c       	adc	r11, r3
    17a6:	c4 1c       	adc	r12, r4
    17a8:	d5 1c       	adc	r13, r5
    17aa:	a2 14       	cp	r10, r2
    17ac:	b3 04       	cpc	r11, r3
    17ae:	c4 04       	cpc	r12, r4
    17b0:	d5 04       	cpc	r13, r5
    17b2:	48 f0       	brcs	.+18     	; 0x17c6 <__moddi3+0x6e4>
    17b4:	a2 16       	cp	r10, r18
    17b6:	b3 06       	cpc	r11, r19
    17b8:	c4 06       	cpc	r12, r20
    17ba:	d5 06       	cpc	r13, r21
    17bc:	20 f4       	brcc	.+8      	; 0x17c6 <__moddi3+0x6e4>
    17be:	a2 0c       	add	r10, r2
    17c0:	b3 1c       	adc	r11, r3
    17c2:	c4 1c       	adc	r12, r4
    17c4:	d5 1c       	adc	r13, r5
    17c6:	a2 1a       	sub	r10, r18
    17c8:	b3 0a       	sbc	r11, r19
    17ca:	c4 0a       	sbc	r12, r20
    17cc:	d5 0a       	sbc	r13, r21
    17ce:	c6 01       	movw	r24, r12
    17d0:	b5 01       	movw	r22, r10
    17d2:	a4 01       	movw	r20, r8
    17d4:	93 01       	movw	r18, r6
    17d6:	0e 94 16 22 	call	0x442c	; 0x442c <__udivmodsi4>
    17da:	7b 01       	movw	r14, r22
    17dc:	8c 01       	movw	r16, r24
    17de:	c6 01       	movw	r24, r12
    17e0:	b5 01       	movw	r22, r10
    17e2:	a4 01       	movw	r20, r8
    17e4:	93 01       	movw	r18, r6
    17e6:	0e 94 16 22 	call	0x442c	; 0x442c <__udivmodsi4>
    17ea:	ca 01       	movw	r24, r20
    17ec:	b9 01       	movw	r22, r18
    17ee:	6d 96       	adiw	r28, 0x1d	; 29
    17f0:	2c ad       	ldd	r18, Y+60	; 0x3c
    17f2:	3d ad       	ldd	r19, Y+61	; 0x3d
    17f4:	4e ad       	ldd	r20, Y+62	; 0x3e
    17f6:	5f ad       	ldd	r21, Y+63	; 0x3f
    17f8:	6d 97       	sbiw	r28, 0x1d	; 29
    17fa:	0e 94 f7 21 	call	0x43ee	; 0x43ee <__mulsi3>
    17fe:	9b 01       	movw	r18, r22
    1800:	ac 01       	movw	r20, r24
    1802:	87 01       	movw	r16, r14
    1804:	ff 24       	eor	r15, r15
    1806:	ee 24       	eor	r14, r14
    1808:	29 96       	adiw	r28, 0x09	; 9
    180a:	8c ad       	ldd	r24, Y+60	; 0x3c
    180c:	9d ad       	ldd	r25, Y+61	; 0x3d
    180e:	ae ad       	ldd	r26, Y+62	; 0x3e
    1810:	bf ad       	ldd	r27, Y+63	; 0x3f
    1812:	29 97       	sbiw	r28, 0x09	; 9
    1814:	a0 70       	andi	r26, 0x00	; 0
    1816:	b0 70       	andi	r27, 0x00	; 0
    1818:	57 01       	movw	r10, r14
    181a:	68 01       	movw	r12, r16
    181c:	a8 2a       	or	r10, r24
    181e:	b9 2a       	or	r11, r25
    1820:	ca 2a       	or	r12, r26
    1822:	db 2a       	or	r13, r27
    1824:	a2 16       	cp	r10, r18
    1826:	b3 06       	cpc	r11, r19
    1828:	c4 06       	cpc	r12, r20
    182a:	d5 06       	cpc	r13, r21
    182c:	90 f4       	brcc	.+36     	; 0x1852 <__moddi3+0x770>
    182e:	a2 0c       	add	r10, r2
    1830:	b3 1c       	adc	r11, r3
    1832:	c4 1c       	adc	r12, r4
    1834:	d5 1c       	adc	r13, r5
    1836:	a2 14       	cp	r10, r2
    1838:	b3 04       	cpc	r11, r3
    183a:	c4 04       	cpc	r12, r4
    183c:	d5 04       	cpc	r13, r5
    183e:	48 f0       	brcs	.+18     	; 0x1852 <__moddi3+0x770>
    1840:	a2 16       	cp	r10, r18
    1842:	b3 06       	cpc	r11, r19
    1844:	c4 06       	cpc	r12, r20
    1846:	d5 06       	cpc	r13, r21
    1848:	20 f4       	brcc	.+8      	; 0x1852 <__moddi3+0x770>
    184a:	a2 0c       	add	r10, r2
    184c:	b3 1c       	adc	r11, r3
    184e:	c4 1c       	adc	r12, r4
    1850:	d5 1c       	adc	r13, r5
    1852:	e8 96       	adiw	r28, 0x38	; 56
    1854:	ec ac       	ldd	r14, Y+60	; 0x3c
    1856:	fd ac       	ldd	r15, Y+61	; 0x3d
    1858:	0e ad       	ldd	r16, Y+62	; 0x3e
    185a:	1f ad       	ldd	r17, Y+63	; 0x3f
    185c:	e8 97       	sbiw	r28, 0x38	; 56
    185e:	e4 96       	adiw	r28, 0x34	; 52
    1860:	0f ac       	ldd	r0, Y+63	; 0x3f
    1862:	e4 97       	sbiw	r28, 0x34	; 52
    1864:	04 c0       	rjmp	.+8      	; 0x186e <__moddi3+0x78c>
    1866:	ee 0c       	add	r14, r14
    1868:	ff 1c       	adc	r15, r15
    186a:	00 1f       	adc	r16, r16
    186c:	11 1f       	adc	r17, r17
    186e:	0a 94       	dec	r0
    1870:	d2 f7       	brpl	.-12     	; 0x1866 <__moddi3+0x784>
    1872:	2d 96       	adiw	r28, 0x0d	; 13
    1874:	ec ae       	std	Y+60, r14	; 0x3c
    1876:	fd ae       	std	Y+61, r15	; 0x3d
    1878:	0e af       	std	Y+62, r16	; 0x3e
    187a:	1f af       	std	Y+63, r17	; 0x3f
    187c:	2d 97       	sbiw	r28, 0x0d	; 13
    187e:	a2 1a       	sub	r10, r18
    1880:	b3 0a       	sbc	r11, r19
    1882:	c4 0a       	sbc	r12, r20
    1884:	d5 0a       	sbc	r13, r21
    1886:	32 01       	movw	r6, r4
    1888:	88 24       	eor	r8, r8
    188a:	99 24       	eor	r9, r9
    188c:	92 01       	movw	r18, r4
    188e:	81 01       	movw	r16, r2
    1890:	20 70       	andi	r18, 0x00	; 0
    1892:	30 70       	andi	r19, 0x00	; 0
    1894:	a1 96       	adiw	r28, 0x21	; 33
    1896:	0c af       	std	Y+60, r16	; 0x3c
    1898:	1d af       	std	Y+61, r17	; 0x3d
    189a:	2e af       	std	Y+62, r18	; 0x3e
    189c:	3f af       	std	Y+63, r19	; 0x3f
    189e:	a1 97       	sbiw	r28, 0x21	; 33
    18a0:	c6 01       	movw	r24, r12
    18a2:	b5 01       	movw	r22, r10
    18a4:	a4 01       	movw	r20, r8
    18a6:	93 01       	movw	r18, r6
    18a8:	0e 94 16 22 	call	0x442c	; 0x442c <__udivmodsi4>
    18ac:	7b 01       	movw	r14, r22
    18ae:	8c 01       	movw	r16, r24
    18b0:	c6 01       	movw	r24, r12
    18b2:	b5 01       	movw	r22, r10
    18b4:	a4 01       	movw	r20, r8
    18b6:	93 01       	movw	r18, r6
    18b8:	0e 94 16 22 	call	0x442c	; 0x442c <__udivmodsi4>
    18bc:	ca 01       	movw	r24, r20
    18be:	b9 01       	movw	r22, r18
    18c0:	a1 96       	adiw	r28, 0x21	; 33
    18c2:	2c ad       	ldd	r18, Y+60	; 0x3c
    18c4:	3d ad       	ldd	r19, Y+61	; 0x3d
    18c6:	4e ad       	ldd	r20, Y+62	; 0x3e
    18c8:	5f ad       	ldd	r21, Y+63	; 0x3f
    18ca:	a1 97       	sbiw	r28, 0x21	; 33
    18cc:	0e 94 f7 21 	call	0x43ee	; 0x43ee <__mulsi3>
    18d0:	9b 01       	movw	r18, r22
    18d2:	ac 01       	movw	r20, r24
    18d4:	87 01       	movw	r16, r14
    18d6:	ff 24       	eor	r15, r15
    18d8:	ee 24       	eor	r14, r14
    18da:	2d 96       	adiw	r28, 0x0d	; 13
    18dc:	ac ac       	ldd	r10, Y+60	; 0x3c
    18de:	bd ac       	ldd	r11, Y+61	; 0x3d
    18e0:	ce ac       	ldd	r12, Y+62	; 0x3e
    18e2:	df ac       	ldd	r13, Y+63	; 0x3f
    18e4:	2d 97       	sbiw	r28, 0x0d	; 13
    18e6:	c6 01       	movw	r24, r12
    18e8:	aa 27       	eor	r26, r26
    18ea:	bb 27       	eor	r27, r27
    18ec:	57 01       	movw	r10, r14
    18ee:	68 01       	movw	r12, r16
    18f0:	a8 2a       	or	r10, r24
    18f2:	b9 2a       	or	r11, r25
    18f4:	ca 2a       	or	r12, r26
    18f6:	db 2a       	or	r13, r27
    18f8:	a2 16       	cp	r10, r18
    18fa:	b3 06       	cpc	r11, r19
    18fc:	c4 06       	cpc	r12, r20
    18fe:	d5 06       	cpc	r13, r21
    1900:	90 f4       	brcc	.+36     	; 0x1926 <__moddi3+0x844>
    1902:	a2 0c       	add	r10, r2
    1904:	b3 1c       	adc	r11, r3
    1906:	c4 1c       	adc	r12, r4
    1908:	d5 1c       	adc	r13, r5
    190a:	a2 14       	cp	r10, r2
    190c:	b3 04       	cpc	r11, r3
    190e:	c4 04       	cpc	r12, r4
    1910:	d5 04       	cpc	r13, r5
    1912:	48 f0       	brcs	.+18     	; 0x1926 <__moddi3+0x844>
    1914:	a2 16       	cp	r10, r18
    1916:	b3 06       	cpc	r11, r19
    1918:	c4 06       	cpc	r12, r20
    191a:	d5 06       	cpc	r13, r21
    191c:	20 f4       	brcc	.+8      	; 0x1926 <__moddi3+0x844>
    191e:	a2 0c       	add	r10, r2
    1920:	b3 1c       	adc	r11, r3
    1922:	c4 1c       	adc	r12, r4
    1924:	d5 1c       	adc	r13, r5
    1926:	a2 1a       	sub	r10, r18
    1928:	b3 0a       	sbc	r11, r19
    192a:	c4 0a       	sbc	r12, r20
    192c:	d5 0a       	sbc	r13, r21
    192e:	c6 01       	movw	r24, r12
    1930:	b5 01       	movw	r22, r10
    1932:	a4 01       	movw	r20, r8
    1934:	93 01       	movw	r18, r6
    1936:	0e 94 16 22 	call	0x442c	; 0x442c <__udivmodsi4>
    193a:	7b 01       	movw	r14, r22
    193c:	8c 01       	movw	r16, r24
    193e:	c6 01       	movw	r24, r12
    1940:	b5 01       	movw	r22, r10
    1942:	a4 01       	movw	r20, r8
    1944:	93 01       	movw	r18, r6
    1946:	0e 94 16 22 	call	0x442c	; 0x442c <__udivmodsi4>
    194a:	ca 01       	movw	r24, r20
    194c:	b9 01       	movw	r22, r18
    194e:	a1 96       	adiw	r28, 0x21	; 33
    1950:	2c ad       	ldd	r18, Y+60	; 0x3c
    1952:	3d ad       	ldd	r19, Y+61	; 0x3d
    1954:	4e ad       	ldd	r20, Y+62	; 0x3e
    1956:	5f ad       	ldd	r21, Y+63	; 0x3f
    1958:	a1 97       	sbiw	r28, 0x21	; 33
    195a:	0e 94 f7 21 	call	0x43ee	; 0x43ee <__mulsi3>
    195e:	9b 01       	movw	r18, r22
    1960:	ac 01       	movw	r20, r24
    1962:	87 01       	movw	r16, r14
    1964:	ff 24       	eor	r15, r15
    1966:	ee 24       	eor	r14, r14
    1968:	2d 96       	adiw	r28, 0x0d	; 13
    196a:	8c ad       	ldd	r24, Y+60	; 0x3c
    196c:	9d ad       	ldd	r25, Y+61	; 0x3d
    196e:	ae ad       	ldd	r26, Y+62	; 0x3e
    1970:	bf ad       	ldd	r27, Y+63	; 0x3f
    1972:	2d 97       	sbiw	r28, 0x0d	; 13
    1974:	a0 70       	andi	r26, 0x00	; 0
    1976:	b0 70       	andi	r27, 0x00	; 0
    1978:	e8 2a       	or	r14, r24
    197a:	f9 2a       	or	r15, r25
    197c:	0a 2b       	or	r16, r26
    197e:	1b 2b       	or	r17, r27
    1980:	e2 16       	cp	r14, r18
    1982:	f3 06       	cpc	r15, r19
    1984:	04 07       	cpc	r16, r20
    1986:	15 07       	cpc	r17, r21
    1988:	90 f4       	brcc	.+36     	; 0x19ae <__moddi3+0x8cc>
    198a:	e2 0c       	add	r14, r2
    198c:	f3 1c       	adc	r15, r3
    198e:	04 1d       	adc	r16, r4
    1990:	15 1d       	adc	r17, r5
    1992:	e2 14       	cp	r14, r2
    1994:	f3 04       	cpc	r15, r3
    1996:	04 05       	cpc	r16, r4
    1998:	15 05       	cpc	r17, r5
    199a:	48 f0       	brcs	.+18     	; 0x19ae <__moddi3+0x8cc>
    199c:	e2 16       	cp	r14, r18
    199e:	f3 06       	cpc	r15, r19
    19a0:	04 07       	cpc	r16, r20
    19a2:	15 07       	cpc	r17, r21
    19a4:	20 f4       	brcc	.+8      	; 0x19ae <__moddi3+0x8cc>
    19a6:	e2 0c       	add	r14, r2
    19a8:	f3 1c       	adc	r15, r3
    19aa:	04 1d       	adc	r16, r4
    19ac:	15 1d       	adc	r17, r5
    19ae:	e2 1a       	sub	r14, r18
    19b0:	f3 0a       	sbc	r15, r19
    19b2:	04 0b       	sbc	r16, r20
    19b4:	15 0b       	sbc	r17, r21
    19b6:	d8 01       	movw	r26, r16
    19b8:	c7 01       	movw	r24, r14
    19ba:	62 96       	adiw	r28, 0x12	; 18
    19bc:	0f ac       	ldd	r0, Y+63	; 0x3f
    19be:	62 97       	sbiw	r28, 0x12	; 18
    19c0:	04 c0       	rjmp	.+8      	; 0x19ca <__moddi3+0x8e8>
    19c2:	b6 95       	lsr	r27
    19c4:	a7 95       	ror	r26
    19c6:	97 95       	ror	r25
    19c8:	87 95       	ror	r24
    19ca:	0a 94       	dec	r0
    19cc:	d2 f7       	brpl	.-12     	; 0x19c2 <__moddi3+0x8e0>
    19ce:	89 a7       	std	Y+41, r24	; 0x29
    19d0:	9a a7       	std	Y+42, r25	; 0x2a
    19d2:	ab a7       	std	Y+43, r26	; 0x2b
    19d4:	bc a7       	std	Y+44, r27	; 0x2c
    19d6:	1d a6       	std	Y+45, r1	; 0x2d
    19d8:	1e a6       	std	Y+46, r1	; 0x2e
    19da:	1f a6       	std	Y+47, r1	; 0x2f
    19dc:	18 aa       	std	Y+48, r1	; 0x30
    19de:	89 8b       	std	Y+17, r24	; 0x11
    19e0:	8a a5       	ldd	r24, Y+42	; 0x2a
    19e2:	8a 8b       	std	Y+18, r24	; 0x12
    19e4:	8b a5       	ldd	r24, Y+43	; 0x2b
    19e6:	8b 8b       	std	Y+19, r24	; 0x13
    19e8:	8c a5       	ldd	r24, Y+44	; 0x2c
    19ea:	8c 8b       	std	Y+20, r24	; 0x14
    19ec:	8d a5       	ldd	r24, Y+45	; 0x2d
    19ee:	8d 8b       	std	Y+21, r24	; 0x15
    19f0:	2f c3       	rjmp	.+1630   	; 0x2050 <__moddi3+0xf6e>
    19f2:	6a 14       	cp	r6, r10
    19f4:	7b 04       	cpc	r7, r11
    19f6:	8c 04       	cpc	r8, r12
    19f8:	9d 04       	cpc	r9, r13
    19fa:	48 f4       	brcc	.+18     	; 0x1a0e <__moddi3+0x92c>
    19fc:	49 8b       	std	Y+17, r20	; 0x11
    19fe:	5a 8b       	std	Y+18, r21	; 0x12
    1a00:	6b 8b       	std	Y+19, r22	; 0x13
    1a02:	7c 8b       	std	Y+20, r23	; 0x14
    1a04:	8d 8b       	std	Y+21, r24	; 0x15
    1a06:	9e 8b       	std	Y+22, r25	; 0x16
    1a08:	2f 8b       	std	Y+23, r18	; 0x17
    1a0a:	38 8f       	std	Y+24, r19	; 0x18
    1a0c:	27 c3       	rjmp	.+1614   	; 0x205c <__moddi3+0xf7a>
    1a0e:	00 e0       	ldi	r16, 0x00	; 0
    1a10:	a0 16       	cp	r10, r16
    1a12:	00 e0       	ldi	r16, 0x00	; 0
    1a14:	b0 06       	cpc	r11, r16
    1a16:	01 e0       	ldi	r16, 0x01	; 1
    1a18:	c0 06       	cpc	r12, r16
    1a1a:	00 e0       	ldi	r16, 0x00	; 0
    1a1c:	d0 06       	cpc	r13, r16
    1a1e:	88 f4       	brcc	.+34     	; 0x1a42 <__moddi3+0x960>
    1a20:	1f ef       	ldi	r17, 0xFF	; 255
    1a22:	a1 16       	cp	r10, r17
    1a24:	b1 04       	cpc	r11, r1
    1a26:	c1 04       	cpc	r12, r1
    1a28:	d1 04       	cpc	r13, r1
    1a2a:	39 f0       	breq	.+14     	; 0x1a3a <__moddi3+0x958>
    1a2c:	30 f0       	brcs	.+12     	; 0x1a3a <__moddi3+0x958>
    1a2e:	28 e0       	ldi	r18, 0x08	; 8
    1a30:	e2 2e       	mov	r14, r18
    1a32:	f1 2c       	mov	r15, r1
    1a34:	01 2d       	mov	r16, r1
    1a36:	11 2d       	mov	r17, r1
    1a38:	18 c0       	rjmp	.+48     	; 0x1a6a <__moddi3+0x988>
    1a3a:	ee 24       	eor	r14, r14
    1a3c:	ff 24       	eor	r15, r15
    1a3e:	87 01       	movw	r16, r14
    1a40:	14 c0       	rjmp	.+40     	; 0x1a6a <__moddi3+0x988>
    1a42:	20 e0       	ldi	r18, 0x00	; 0
    1a44:	a2 16       	cp	r10, r18
    1a46:	20 e0       	ldi	r18, 0x00	; 0
    1a48:	b2 06       	cpc	r11, r18
    1a4a:	20 e0       	ldi	r18, 0x00	; 0
    1a4c:	c2 06       	cpc	r12, r18
    1a4e:	21 e0       	ldi	r18, 0x01	; 1
    1a50:	d2 06       	cpc	r13, r18
    1a52:	30 f0       	brcs	.+12     	; 0x1a60 <__moddi3+0x97e>
    1a54:	98 e1       	ldi	r25, 0x18	; 24
    1a56:	e9 2e       	mov	r14, r25
    1a58:	f1 2c       	mov	r15, r1
    1a5a:	01 2d       	mov	r16, r1
    1a5c:	11 2d       	mov	r17, r1
    1a5e:	05 c0       	rjmp	.+10     	; 0x1a6a <__moddi3+0x988>
    1a60:	80 e1       	ldi	r24, 0x10	; 16
    1a62:	e8 2e       	mov	r14, r24
    1a64:	f1 2c       	mov	r15, r1
    1a66:	01 2d       	mov	r16, r1
    1a68:	11 2d       	mov	r17, r1
    1a6a:	d6 01       	movw	r26, r12
    1a6c:	c5 01       	movw	r24, r10
    1a6e:	0e 2c       	mov	r0, r14
    1a70:	04 c0       	rjmp	.+8      	; 0x1a7a <__moddi3+0x998>
    1a72:	b6 95       	lsr	r27
    1a74:	a7 95       	ror	r26
    1a76:	97 95       	ror	r25
    1a78:	87 95       	ror	r24
    1a7a:	0a 94       	dec	r0
    1a7c:	d2 f7       	brpl	.-12     	; 0x1a72 <__moddi3+0x990>
    1a7e:	8b 59       	subi	r24, 0x9B	; 155
    1a80:	9f 4f       	sbci	r25, 0xFF	; 255
    1a82:	dc 01       	movw	r26, r24
    1a84:	2c 91       	ld	r18, X
    1a86:	80 e2       	ldi	r24, 0x20	; 32
    1a88:	90 e0       	ldi	r25, 0x00	; 0
    1a8a:	a0 e0       	ldi	r26, 0x00	; 0
    1a8c:	b0 e0       	ldi	r27, 0x00	; 0
    1a8e:	8e 19       	sub	r24, r14
    1a90:	9f 09       	sbc	r25, r15
    1a92:	a0 0b       	sbc	r26, r16
    1a94:	b1 0b       	sbc	r27, r17
    1a96:	82 1b       	sub	r24, r18
    1a98:	91 09       	sbc	r25, r1
    1a9a:	a1 09       	sbc	r26, r1
    1a9c:	b1 09       	sbc	r27, r1
    1a9e:	00 97       	sbiw	r24, 0x00	; 0
    1aa0:	a1 05       	cpc	r26, r1
    1aa2:	b1 05       	cpc	r27, r1
    1aa4:	09 f0       	breq	.+2      	; 0x1aa8 <__moddi3+0x9c6>
    1aa6:	59 c0       	rjmp	.+178    	; 0x1b5a <__moddi3+0xa78>
    1aa8:	a6 14       	cp	r10, r6
    1aaa:	b7 04       	cpc	r11, r7
    1aac:	c8 04       	cpc	r12, r8
    1aae:	d9 04       	cpc	r13, r9
    1ab0:	70 f0       	brcs	.+28     	; 0x1ace <__moddi3+0x9ec>
    1ab2:	e8 96       	adiw	r28, 0x38	; 56
    1ab4:	ec ac       	ldd	r14, Y+60	; 0x3c
    1ab6:	fd ac       	ldd	r15, Y+61	; 0x3d
    1ab8:	0e ad       	ldd	r16, Y+62	; 0x3e
    1aba:	1f ad       	ldd	r17, Y+63	; 0x3f
    1abc:	e8 97       	sbiw	r28, 0x38	; 56
    1abe:	e2 14       	cp	r14, r2
    1ac0:	f3 04       	cpc	r15, r3
    1ac2:	04 05       	cpc	r16, r4
    1ac4:	15 05       	cpc	r17, r5
    1ac6:	18 f4       	brcc	.+6      	; 0x1ace <__moddi3+0x9ec>
    1ac8:	d8 01       	movw	r26, r16
    1aca:	c7 01       	movw	r24, r14
    1acc:	2f c0       	rjmp	.+94     	; 0x1b2c <__moddi3+0xa4a>
    1ace:	e8 96       	adiw	r28, 0x38	; 56
    1ad0:	8c ad       	ldd	r24, Y+60	; 0x3c
    1ad2:	9d ad       	ldd	r25, Y+61	; 0x3d
    1ad4:	ae ad       	ldd	r26, Y+62	; 0x3e
    1ad6:	bf ad       	ldd	r27, Y+63	; 0x3f
    1ad8:	e8 97       	sbiw	r28, 0x38	; 56
    1ada:	82 19       	sub	r24, r2
    1adc:	93 09       	sbc	r25, r3
    1ade:	a4 09       	sbc	r26, r4
    1ae0:	b5 09       	sbc	r27, r5
    1ae2:	a4 01       	movw	r20, r8
    1ae4:	93 01       	movw	r18, r6
    1ae6:	2a 19       	sub	r18, r10
    1ae8:	3b 09       	sbc	r19, r11
    1aea:	4c 09       	sbc	r20, r12
    1aec:	5d 09       	sbc	r21, r13
    1aee:	aa 24       	eor	r10, r10
    1af0:	bb 24       	eor	r11, r11
    1af2:	65 01       	movw	r12, r10
    1af4:	e8 96       	adiw	r28, 0x38	; 56
    1af6:	6c ac       	ldd	r6, Y+60	; 0x3c
    1af8:	7d ac       	ldd	r7, Y+61	; 0x3d
    1afa:	8e ac       	ldd	r8, Y+62	; 0x3e
    1afc:	9f ac       	ldd	r9, Y+63	; 0x3f
    1afe:	e8 97       	sbiw	r28, 0x38	; 56
    1b00:	68 16       	cp	r6, r24
    1b02:	79 06       	cpc	r7, r25
    1b04:	8a 06       	cpc	r8, r26
    1b06:	9b 06       	cpc	r9, r27
    1b08:	28 f4       	brcc	.+10     	; 0x1b14 <__moddi3+0xa32>
    1b0a:	11 e0       	ldi	r17, 0x01	; 1
    1b0c:	a1 2e       	mov	r10, r17
    1b0e:	b1 2c       	mov	r11, r1
    1b10:	c1 2c       	mov	r12, r1
    1b12:	d1 2c       	mov	r13, r1
    1b14:	79 01       	movw	r14, r18
    1b16:	8a 01       	movw	r16, r20
    1b18:	ea 18       	sub	r14, r10
    1b1a:	fb 08       	sbc	r15, r11
    1b1c:	0c 09       	sbc	r16, r12
    1b1e:	1d 09       	sbc	r17, r13
    1b20:	61 96       	adiw	r28, 0x11	; 17
    1b22:	ec ae       	std	Y+60, r14	; 0x3c
    1b24:	fd ae       	std	Y+61, r15	; 0x3d
    1b26:	0e af       	std	Y+62, r16	; 0x3e
    1b28:	1f af       	std	Y+63, r17	; 0x3f
    1b2a:	61 97       	sbiw	r28, 0x11	; 17
    1b2c:	89 a7       	std	Y+41, r24	; 0x29
    1b2e:	9a a7       	std	Y+42, r25	; 0x2a
    1b30:	ab a7       	std	Y+43, r26	; 0x2b
    1b32:	bc a7       	std	Y+44, r27	; 0x2c
    1b34:	61 96       	adiw	r28, 0x11	; 17
    1b36:	0c ad       	ldd	r16, Y+60	; 0x3c
    1b38:	1d ad       	ldd	r17, Y+61	; 0x3d
    1b3a:	2e ad       	ldd	r18, Y+62	; 0x3e
    1b3c:	3f ad       	ldd	r19, Y+63	; 0x3f
    1b3e:	61 97       	sbiw	r28, 0x11	; 17
    1b40:	0d a7       	std	Y+45, r16	; 0x2d
    1b42:	1e a7       	std	Y+46, r17	; 0x2e
    1b44:	2f a7       	std	Y+47, r18	; 0x2f
    1b46:	38 ab       	std	Y+48, r19	; 0x30
    1b48:	89 8b       	std	Y+17, r24	; 0x11
    1b4a:	8a a5       	ldd	r24, Y+42	; 0x2a
    1b4c:	8a 8b       	std	Y+18, r24	; 0x12
    1b4e:	8b a5       	ldd	r24, Y+43	; 0x2b
    1b50:	8b 8b       	std	Y+19, r24	; 0x13
    1b52:	8c a5       	ldd	r24, Y+44	; 0x2c
    1b54:	8c 8b       	std	Y+20, r24	; 0x14
    1b56:	0d 8b       	std	Y+21, r16	; 0x15
    1b58:	7b c2       	rjmp	.+1270   	; 0x2050 <__moddi3+0xf6e>
    1b5a:	e3 96       	adiw	r28, 0x33	; 51
    1b5c:	8f af       	std	Y+63, r24	; 0x3f
    1b5e:	e3 97       	sbiw	r28, 0x33	; 51
    1b60:	a6 01       	movw	r20, r12
    1b62:	95 01       	movw	r18, r10
    1b64:	08 2e       	mov	r0, r24
    1b66:	04 c0       	rjmp	.+8      	; 0x1b70 <__moddi3+0xa8e>
    1b68:	22 0f       	add	r18, r18
    1b6a:	33 1f       	adc	r19, r19
    1b6c:	44 1f       	adc	r20, r20
    1b6e:	55 1f       	adc	r21, r21
    1b70:	0a 94       	dec	r0
    1b72:	d2 f7       	brpl	.-12     	; 0x1b68 <__moddi3+0xa86>
    1b74:	10 e2       	ldi	r17, 0x20	; 32
    1b76:	18 1b       	sub	r17, r24
    1b78:	e2 96       	adiw	r28, 0x32	; 50
    1b7a:	1f af       	std	Y+63, r17	; 0x3f
    1b7c:	e2 97       	sbiw	r28, 0x32	; 50
    1b7e:	d2 01       	movw	r26, r4
    1b80:	c1 01       	movw	r24, r2
    1b82:	01 2e       	mov	r0, r17
    1b84:	04 c0       	rjmp	.+8      	; 0x1b8e <__moddi3+0xaac>
    1b86:	b6 95       	lsr	r27
    1b88:	a7 95       	ror	r26
    1b8a:	97 95       	ror	r25
    1b8c:	87 95       	ror	r24
    1b8e:	0a 94       	dec	r0
    1b90:	d2 f7       	brpl	.-12     	; 0x1b86 <__moddi3+0xaa4>
    1b92:	5c 01       	movw	r10, r24
    1b94:	6d 01       	movw	r12, r26
    1b96:	a2 2a       	or	r10, r18
    1b98:	b3 2a       	or	r11, r19
    1b9a:	c4 2a       	or	r12, r20
    1b9c:	d5 2a       	or	r13, r21
    1b9e:	25 96       	adiw	r28, 0x05	; 5
    1ba0:	ac ae       	std	Y+60, r10	; 0x3c
    1ba2:	bd ae       	std	Y+61, r11	; 0x3d
    1ba4:	ce ae       	std	Y+62, r12	; 0x3e
    1ba6:	df ae       	std	Y+63, r13	; 0x3f
    1ba8:	25 97       	sbiw	r28, 0x05	; 5
    1baa:	72 01       	movw	r14, r4
    1bac:	61 01       	movw	r12, r2
    1bae:	e3 96       	adiw	r28, 0x33	; 51
    1bb0:	0f ac       	ldd	r0, Y+63	; 0x3f
    1bb2:	e3 97       	sbiw	r28, 0x33	; 51
    1bb4:	04 c0       	rjmp	.+8      	; 0x1bbe <__moddi3+0xadc>
    1bb6:	cc 0c       	add	r12, r12
    1bb8:	dd 1c       	adc	r13, r13
    1bba:	ee 1c       	adc	r14, r14
    1bbc:	ff 1c       	adc	r15, r15
    1bbe:	0a 94       	dec	r0
    1bc0:	d2 f7       	brpl	.-12     	; 0x1bb6 <__moddi3+0xad4>
    1bc2:	21 96       	adiw	r28, 0x01	; 1
    1bc4:	cc ae       	std	Y+60, r12	; 0x3c
    1bc6:	dd ae       	std	Y+61, r13	; 0x3d
    1bc8:	ee ae       	std	Y+62, r14	; 0x3e
    1bca:	ff ae       	std	Y+63, r15	; 0x3f
    1bcc:	21 97       	sbiw	r28, 0x01	; 1
    1bce:	64 01       	movw	r12, r8
    1bd0:	53 01       	movw	r10, r6
    1bd2:	01 2e       	mov	r0, r17
    1bd4:	04 c0       	rjmp	.+8      	; 0x1bde <__moddi3+0xafc>
    1bd6:	d6 94       	lsr	r13
    1bd8:	c7 94       	ror	r12
    1bda:	b7 94       	ror	r11
    1bdc:	a7 94       	ror	r10
    1bde:	0a 94       	dec	r0
    1be0:	d2 f7       	brpl	.-12     	; 0x1bd6 <__moddi3+0xaf4>
    1be2:	a4 01       	movw	r20, r8
    1be4:	93 01       	movw	r18, r6
    1be6:	e3 96       	adiw	r28, 0x33	; 51
    1be8:	0f ac       	ldd	r0, Y+63	; 0x3f
    1bea:	e3 97       	sbiw	r28, 0x33	; 51
    1bec:	04 c0       	rjmp	.+8      	; 0x1bf6 <__moddi3+0xb14>
    1bee:	22 0f       	add	r18, r18
    1bf0:	33 1f       	adc	r19, r19
    1bf2:	44 1f       	adc	r20, r20
    1bf4:	55 1f       	adc	r21, r21
    1bf6:	0a 94       	dec	r0
    1bf8:	d2 f7       	brpl	.-12     	; 0x1bee <__moddi3+0xb0c>
    1bfa:	e8 96       	adiw	r28, 0x38	; 56
    1bfc:	8c ad       	ldd	r24, Y+60	; 0x3c
    1bfe:	9d ad       	ldd	r25, Y+61	; 0x3d
    1c00:	ae ad       	ldd	r26, Y+62	; 0x3e
    1c02:	bf ad       	ldd	r27, Y+63	; 0x3f
    1c04:	e8 97       	sbiw	r28, 0x38	; 56
    1c06:	04 c0       	rjmp	.+8      	; 0x1c10 <__moddi3+0xb2e>
    1c08:	b6 95       	lsr	r27
    1c0a:	a7 95       	ror	r26
    1c0c:	97 95       	ror	r25
    1c0e:	87 95       	ror	r24
    1c10:	1a 95       	dec	r17
    1c12:	d2 f7       	brpl	.-12     	; 0x1c08 <__moddi3+0xb26>
    1c14:	7c 01       	movw	r14, r24
    1c16:	8d 01       	movw	r16, r26
    1c18:	e2 2a       	or	r14, r18
    1c1a:	f3 2a       	or	r15, r19
    1c1c:	04 2b       	or	r16, r20
    1c1e:	15 2b       	or	r17, r21
    1c20:	e9 ae       	std	Y+57, r14	; 0x39
    1c22:	fa ae       	std	Y+58, r15	; 0x3a
    1c24:	0b af       	std	Y+59, r16	; 0x3b
    1c26:	1c af       	std	Y+60, r17	; 0x3c
    1c28:	e8 96       	adiw	r28, 0x38	; 56
    1c2a:	0c ad       	ldd	r16, Y+60	; 0x3c
    1c2c:	1d ad       	ldd	r17, Y+61	; 0x3d
    1c2e:	2e ad       	ldd	r18, Y+62	; 0x3e
    1c30:	3f ad       	ldd	r19, Y+63	; 0x3f
    1c32:	e8 97       	sbiw	r28, 0x38	; 56
    1c34:	e3 96       	adiw	r28, 0x33	; 51
    1c36:	0f ac       	ldd	r0, Y+63	; 0x3f
    1c38:	e3 97       	sbiw	r28, 0x33	; 51
    1c3a:	04 c0       	rjmp	.+8      	; 0x1c44 <__moddi3+0xb62>
    1c3c:	00 0f       	add	r16, r16
    1c3e:	11 1f       	adc	r17, r17
    1c40:	22 1f       	adc	r18, r18
    1c42:	33 1f       	adc	r19, r19
    1c44:	0a 94       	dec	r0
    1c46:	d2 f7       	brpl	.-12     	; 0x1c3c <__moddi3+0xb5a>
    1c48:	0d ab       	std	Y+53, r16	; 0x35
    1c4a:	1e ab       	std	Y+54, r17	; 0x36
    1c4c:	2f ab       	std	Y+55, r18	; 0x37
    1c4e:	38 af       	std	Y+56, r19	; 0x38
    1c50:	25 96       	adiw	r28, 0x05	; 5
    1c52:	2c ad       	ldd	r18, Y+60	; 0x3c
    1c54:	3d ad       	ldd	r19, Y+61	; 0x3d
    1c56:	4e ad       	ldd	r20, Y+62	; 0x3e
    1c58:	5f ad       	ldd	r21, Y+63	; 0x3f
    1c5a:	25 97       	sbiw	r28, 0x05	; 5
    1c5c:	3a 01       	movw	r6, r20
    1c5e:	88 24       	eor	r8, r8
    1c60:	99 24       	eor	r9, r9
    1c62:	40 70       	andi	r20, 0x00	; 0
    1c64:	50 70       	andi	r21, 0x00	; 0
    1c66:	a5 96       	adiw	r28, 0x25	; 37
    1c68:	2c af       	std	Y+60, r18	; 0x3c
    1c6a:	3d af       	std	Y+61, r19	; 0x3d
    1c6c:	4e af       	std	Y+62, r20	; 0x3e
    1c6e:	5f af       	std	Y+63, r21	; 0x3f
    1c70:	a5 97       	sbiw	r28, 0x25	; 37
    1c72:	c6 01       	movw	r24, r12
    1c74:	b5 01       	movw	r22, r10
    1c76:	a4 01       	movw	r20, r8
    1c78:	93 01       	movw	r18, r6
    1c7a:	0e 94 16 22 	call	0x442c	; 0x442c <__udivmodsi4>
    1c7e:	7b 01       	movw	r14, r22
    1c80:	8c 01       	movw	r16, r24
    1c82:	c6 01       	movw	r24, r12
    1c84:	b5 01       	movw	r22, r10
    1c86:	a4 01       	movw	r20, r8
    1c88:	93 01       	movw	r18, r6
    1c8a:	0e 94 16 22 	call	0x442c	; 0x442c <__udivmodsi4>
    1c8e:	c9 01       	movw	r24, r18
    1c90:	da 01       	movw	r26, r20
    1c92:	1c 01       	movw	r2, r24
    1c94:	2d 01       	movw	r4, r26
    1c96:	c2 01       	movw	r24, r4
    1c98:	b1 01       	movw	r22, r2
    1c9a:	a5 96       	adiw	r28, 0x25	; 37
    1c9c:	2c ad       	ldd	r18, Y+60	; 0x3c
    1c9e:	3d ad       	ldd	r19, Y+61	; 0x3d
    1ca0:	4e ad       	ldd	r20, Y+62	; 0x3e
    1ca2:	5f ad       	ldd	r21, Y+63	; 0x3f
    1ca4:	a5 97       	sbiw	r28, 0x25	; 37
    1ca6:	0e 94 f7 21 	call	0x43ee	; 0x43ee <__mulsi3>
    1caa:	9b 01       	movw	r18, r22
    1cac:	ac 01       	movw	r20, r24
    1cae:	87 01       	movw	r16, r14
    1cb0:	ff 24       	eor	r15, r15
    1cb2:	ee 24       	eor	r14, r14
    1cb4:	a9 ac       	ldd	r10, Y+57	; 0x39
    1cb6:	ba ac       	ldd	r11, Y+58	; 0x3a
    1cb8:	cb ac       	ldd	r12, Y+59	; 0x3b
    1cba:	dc ac       	ldd	r13, Y+60	; 0x3c
    1cbc:	c6 01       	movw	r24, r12
    1cbe:	aa 27       	eor	r26, r26
    1cc0:	bb 27       	eor	r27, r27
    1cc2:	57 01       	movw	r10, r14
    1cc4:	68 01       	movw	r12, r16
    1cc6:	a8 2a       	or	r10, r24
    1cc8:	b9 2a       	or	r11, r25
    1cca:	ca 2a       	or	r12, r26
    1ccc:	db 2a       	or	r13, r27
    1cce:	a2 16       	cp	r10, r18
    1cd0:	b3 06       	cpc	r11, r19
    1cd2:	c4 06       	cpc	r12, r20
    1cd4:	d5 06       	cpc	r13, r21
    1cd6:	10 f5       	brcc	.+68     	; 0x1d1c <__moddi3+0xc3a>
    1cd8:	08 94       	sec
    1cda:	21 08       	sbc	r2, r1
    1cdc:	31 08       	sbc	r3, r1
    1cde:	41 08       	sbc	r4, r1
    1ce0:	51 08       	sbc	r5, r1
    1ce2:	25 96       	adiw	r28, 0x05	; 5
    1ce4:	ec ac       	ldd	r14, Y+60	; 0x3c
    1ce6:	fd ac       	ldd	r15, Y+61	; 0x3d
    1ce8:	0e ad       	ldd	r16, Y+62	; 0x3e
    1cea:	1f ad       	ldd	r17, Y+63	; 0x3f
    1cec:	25 97       	sbiw	r28, 0x05	; 5
    1cee:	ae 0c       	add	r10, r14
    1cf0:	bf 1c       	adc	r11, r15
    1cf2:	c0 1e       	adc	r12, r16
    1cf4:	d1 1e       	adc	r13, r17
    1cf6:	ae 14       	cp	r10, r14
    1cf8:	bf 04       	cpc	r11, r15
    1cfa:	c0 06       	cpc	r12, r16
    1cfc:	d1 06       	cpc	r13, r17
    1cfe:	70 f0       	brcs	.+28     	; 0x1d1c <__moddi3+0xc3a>
    1d00:	a2 16       	cp	r10, r18
    1d02:	b3 06       	cpc	r11, r19
    1d04:	c4 06       	cpc	r12, r20
    1d06:	d5 06       	cpc	r13, r21
    1d08:	48 f4       	brcc	.+18     	; 0x1d1c <__moddi3+0xc3a>
    1d0a:	08 94       	sec
    1d0c:	21 08       	sbc	r2, r1
    1d0e:	31 08       	sbc	r3, r1
    1d10:	41 08       	sbc	r4, r1
    1d12:	51 08       	sbc	r5, r1
    1d14:	ae 0c       	add	r10, r14
    1d16:	bf 1c       	adc	r11, r15
    1d18:	c0 1e       	adc	r12, r16
    1d1a:	d1 1e       	adc	r13, r17
    1d1c:	a2 1a       	sub	r10, r18
    1d1e:	b3 0a       	sbc	r11, r19
    1d20:	c4 0a       	sbc	r12, r20
    1d22:	d5 0a       	sbc	r13, r21
    1d24:	c6 01       	movw	r24, r12
    1d26:	b5 01       	movw	r22, r10
    1d28:	a4 01       	movw	r20, r8
    1d2a:	93 01       	movw	r18, r6
    1d2c:	0e 94 16 22 	call	0x442c	; 0x442c <__udivmodsi4>
    1d30:	7b 01       	movw	r14, r22
    1d32:	8c 01       	movw	r16, r24
    1d34:	c6 01       	movw	r24, r12
    1d36:	b5 01       	movw	r22, r10
    1d38:	a4 01       	movw	r20, r8
    1d3a:	93 01       	movw	r18, r6
    1d3c:	0e 94 16 22 	call	0x442c	; 0x442c <__udivmodsi4>
    1d40:	c9 01       	movw	r24, r18
    1d42:	da 01       	movw	r26, r20
    1d44:	3c 01       	movw	r6, r24
    1d46:	4d 01       	movw	r8, r26
    1d48:	c4 01       	movw	r24, r8
    1d4a:	b3 01       	movw	r22, r6
    1d4c:	a5 96       	adiw	r28, 0x25	; 37
    1d4e:	2c ad       	ldd	r18, Y+60	; 0x3c
    1d50:	3d ad       	ldd	r19, Y+61	; 0x3d
    1d52:	4e ad       	ldd	r20, Y+62	; 0x3e
    1d54:	5f ad       	ldd	r21, Y+63	; 0x3f
    1d56:	a5 97       	sbiw	r28, 0x25	; 37
    1d58:	0e 94 f7 21 	call	0x43ee	; 0x43ee <__mulsi3>
    1d5c:	9b 01       	movw	r18, r22
    1d5e:	ac 01       	movw	r20, r24
    1d60:	87 01       	movw	r16, r14
    1d62:	ff 24       	eor	r15, r15
    1d64:	ee 24       	eor	r14, r14
    1d66:	89 ad       	ldd	r24, Y+57	; 0x39
    1d68:	9a ad       	ldd	r25, Y+58	; 0x3a
    1d6a:	ab ad       	ldd	r26, Y+59	; 0x3b
    1d6c:	bc ad       	ldd	r27, Y+60	; 0x3c
    1d6e:	a0 70       	andi	r26, 0x00	; 0
    1d70:	b0 70       	andi	r27, 0x00	; 0
    1d72:	57 01       	movw	r10, r14
    1d74:	68 01       	movw	r12, r16
    1d76:	a8 2a       	or	r10, r24
    1d78:	b9 2a       	or	r11, r25
    1d7a:	ca 2a       	or	r12, r26
    1d7c:	db 2a       	or	r13, r27
    1d7e:	a2 16       	cp	r10, r18
    1d80:	b3 06       	cpc	r11, r19
    1d82:	c4 06       	cpc	r12, r20
    1d84:	d5 06       	cpc	r13, r21
    1d86:	10 f5       	brcc	.+68     	; 0x1dcc <__moddi3+0xcea>
    1d88:	08 94       	sec
    1d8a:	61 08       	sbc	r6, r1
    1d8c:	71 08       	sbc	r7, r1
    1d8e:	81 08       	sbc	r8, r1
    1d90:	91 08       	sbc	r9, r1
    1d92:	25 96       	adiw	r28, 0x05	; 5
    1d94:	6c ad       	ldd	r22, Y+60	; 0x3c
    1d96:	7d ad       	ldd	r23, Y+61	; 0x3d
    1d98:	8e ad       	ldd	r24, Y+62	; 0x3e
    1d9a:	9f ad       	ldd	r25, Y+63	; 0x3f
    1d9c:	25 97       	sbiw	r28, 0x05	; 5
    1d9e:	a6 0e       	add	r10, r22
    1da0:	b7 1e       	adc	r11, r23
    1da2:	c8 1e       	adc	r12, r24
    1da4:	d9 1e       	adc	r13, r25
    1da6:	a6 16       	cp	r10, r22
    1da8:	b7 06       	cpc	r11, r23
    1daa:	c8 06       	cpc	r12, r24
    1dac:	d9 06       	cpc	r13, r25
    1dae:	70 f0       	brcs	.+28     	; 0x1dcc <__moddi3+0xcea>
    1db0:	a2 16       	cp	r10, r18
    1db2:	b3 06       	cpc	r11, r19
    1db4:	c4 06       	cpc	r12, r20
    1db6:	d5 06       	cpc	r13, r21
    1db8:	48 f4       	brcc	.+18     	; 0x1dcc <__moddi3+0xcea>
    1dba:	08 94       	sec
    1dbc:	61 08       	sbc	r6, r1
    1dbe:	71 08       	sbc	r7, r1
    1dc0:	81 08       	sbc	r8, r1
    1dc2:	91 08       	sbc	r9, r1
    1dc4:	a6 0e       	add	r10, r22
    1dc6:	b7 1e       	adc	r11, r23
    1dc8:	c8 1e       	adc	r12, r24
    1dca:	d9 1e       	adc	r13, r25
    1dcc:	d6 01       	movw	r26, r12
    1dce:	c5 01       	movw	r24, r10
    1dd0:	82 1b       	sub	r24, r18
    1dd2:	93 0b       	sbc	r25, r19
    1dd4:	a4 0b       	sbc	r26, r20
    1dd6:	b5 0b       	sbc	r27, r21
    1dd8:	89 ab       	std	Y+49, r24	; 0x31
    1dda:	9a ab       	std	Y+50, r25	; 0x32
    1ddc:	ab ab       	std	Y+51, r26	; 0x33
    1dde:	bc ab       	std	Y+52, r27	; 0x34
    1de0:	d1 01       	movw	r26, r2
    1de2:	99 27       	eor	r25, r25
    1de4:	88 27       	eor	r24, r24
    1de6:	84 01       	movw	r16, r8
    1de8:	73 01       	movw	r14, r6
    1dea:	e8 2a       	or	r14, r24
    1dec:	f9 2a       	or	r15, r25
    1dee:	0a 2b       	or	r16, r26
    1df0:	1b 2b       	or	r17, r27
    1df2:	8f ef       	ldi	r24, 0xFF	; 255
    1df4:	a8 2e       	mov	r10, r24
    1df6:	8f ef       	ldi	r24, 0xFF	; 255
    1df8:	b8 2e       	mov	r11, r24
    1dfa:	c1 2c       	mov	r12, r1
    1dfc:	d1 2c       	mov	r13, r1
    1dfe:	ae 20       	and	r10, r14
    1e00:	bf 20       	and	r11, r15
    1e02:	c0 22       	and	r12, r16
    1e04:	d1 22       	and	r13, r17
    1e06:	78 01       	movw	r14, r16
    1e08:	00 27       	eor	r16, r16
    1e0a:	11 27       	eor	r17, r17
    1e0c:	21 96       	adiw	r28, 0x01	; 1
    1e0e:	6c ac       	ldd	r6, Y+60	; 0x3c
    1e10:	7d ac       	ldd	r7, Y+61	; 0x3d
    1e12:	8e ac       	ldd	r8, Y+62	; 0x3e
    1e14:	9f ac       	ldd	r9, Y+63	; 0x3f
    1e16:	21 97       	sbiw	r28, 0x01	; 1
    1e18:	2f ef       	ldi	r18, 0xFF	; 255
    1e1a:	3f ef       	ldi	r19, 0xFF	; 255
    1e1c:	40 e0       	ldi	r20, 0x00	; 0
    1e1e:	50 e0       	ldi	r21, 0x00	; 0
    1e20:	62 22       	and	r6, r18
    1e22:	73 22       	and	r7, r19
    1e24:	84 22       	and	r8, r20
    1e26:	95 22       	and	r9, r21
    1e28:	21 96       	adiw	r28, 0x01	; 1
    1e2a:	6c ad       	ldd	r22, Y+60	; 0x3c
    1e2c:	7d ad       	ldd	r23, Y+61	; 0x3d
    1e2e:	8e ad       	ldd	r24, Y+62	; 0x3e
    1e30:	9f ad       	ldd	r25, Y+63	; 0x3f
    1e32:	21 97       	sbiw	r28, 0x01	; 1
    1e34:	ac 01       	movw	r20, r24
    1e36:	66 27       	eor	r22, r22
    1e38:	77 27       	eor	r23, r23
    1e3a:	ad 96       	adiw	r28, 0x2d	; 45
    1e3c:	4c af       	std	Y+60, r20	; 0x3c
    1e3e:	5d af       	std	Y+61, r21	; 0x3d
    1e40:	6e af       	std	Y+62, r22	; 0x3e
    1e42:	7f af       	std	Y+63, r23	; 0x3f
    1e44:	ad 97       	sbiw	r28, 0x2d	; 45
    1e46:	c6 01       	movw	r24, r12
    1e48:	b5 01       	movw	r22, r10
    1e4a:	a4 01       	movw	r20, r8
    1e4c:	93 01       	movw	r18, r6
    1e4e:	0e 94 f7 21 	call	0x43ee	; 0x43ee <__mulsi3>
    1e52:	a9 96       	adiw	r28, 0x29	; 41
    1e54:	6c af       	std	Y+60, r22	; 0x3c
    1e56:	7d af       	std	Y+61, r23	; 0x3d
    1e58:	8e af       	std	Y+62, r24	; 0x3e
    1e5a:	9f af       	std	Y+63, r25	; 0x3f
    1e5c:	a9 97       	sbiw	r28, 0x29	; 41
    1e5e:	c6 01       	movw	r24, r12
    1e60:	b5 01       	movw	r22, r10
    1e62:	ad 96       	adiw	r28, 0x2d	; 45
    1e64:	2c ad       	ldd	r18, Y+60	; 0x3c
    1e66:	3d ad       	ldd	r19, Y+61	; 0x3d
    1e68:	4e ad       	ldd	r20, Y+62	; 0x3e
    1e6a:	5f ad       	ldd	r21, Y+63	; 0x3f
    1e6c:	ad 97       	sbiw	r28, 0x2d	; 45
    1e6e:	0e 94 f7 21 	call	0x43ee	; 0x43ee <__mulsi3>
    1e72:	1b 01       	movw	r2, r22
    1e74:	2c 01       	movw	r4, r24
    1e76:	c8 01       	movw	r24, r16
    1e78:	b7 01       	movw	r22, r14
    1e7a:	a4 01       	movw	r20, r8
    1e7c:	93 01       	movw	r18, r6
    1e7e:	0e 94 f7 21 	call	0x43ee	; 0x43ee <__mulsi3>
    1e82:	5b 01       	movw	r10, r22
    1e84:	6c 01       	movw	r12, r24
    1e86:	c8 01       	movw	r24, r16
    1e88:	b7 01       	movw	r22, r14
    1e8a:	ad 96       	adiw	r28, 0x2d	; 45
    1e8c:	2c ad       	ldd	r18, Y+60	; 0x3c
    1e8e:	3d ad       	ldd	r19, Y+61	; 0x3d
    1e90:	4e ad       	ldd	r20, Y+62	; 0x3e
    1e92:	5f ad       	ldd	r21, Y+63	; 0x3f
    1e94:	ad 97       	sbiw	r28, 0x2d	; 45
    1e96:	0e 94 f7 21 	call	0x43ee	; 0x43ee <__mulsi3>
    1e9a:	7b 01       	movw	r14, r22
    1e9c:	8c 01       	movw	r16, r24
    1e9e:	a6 01       	movw	r20, r12
    1ea0:	95 01       	movw	r18, r10
    1ea2:	22 0d       	add	r18, r2
    1ea4:	33 1d       	adc	r19, r3
    1ea6:	44 1d       	adc	r20, r4
    1ea8:	55 1d       	adc	r21, r5
    1eaa:	a9 96       	adiw	r28, 0x29	; 41
    1eac:	6c ac       	ldd	r6, Y+60	; 0x3c
    1eae:	7d ac       	ldd	r7, Y+61	; 0x3d
    1eb0:	8e ac       	ldd	r8, Y+62	; 0x3e
    1eb2:	9f ac       	ldd	r9, Y+63	; 0x3f
    1eb4:	a9 97       	sbiw	r28, 0x29	; 41
    1eb6:	c4 01       	movw	r24, r8
    1eb8:	aa 27       	eor	r26, r26
    1eba:	bb 27       	eor	r27, r27
    1ebc:	28 0f       	add	r18, r24
    1ebe:	39 1f       	adc	r19, r25
    1ec0:	4a 1f       	adc	r20, r26
    1ec2:	5b 1f       	adc	r21, r27
    1ec4:	2a 15       	cp	r18, r10
    1ec6:	3b 05       	cpc	r19, r11
    1ec8:	4c 05       	cpc	r20, r12
    1eca:	5d 05       	cpc	r21, r13
    1ecc:	48 f4       	brcc	.+18     	; 0x1ee0 <__moddi3+0xdfe>
    1ece:	81 2c       	mov	r8, r1
    1ed0:	91 2c       	mov	r9, r1
    1ed2:	e1 e0       	ldi	r30, 0x01	; 1
    1ed4:	ae 2e       	mov	r10, r30
    1ed6:	b1 2c       	mov	r11, r1
    1ed8:	e8 0c       	add	r14, r8
    1eda:	f9 1c       	adc	r15, r9
    1edc:	0a 1d       	adc	r16, r10
    1ede:	1b 1d       	adc	r17, r11
    1ee0:	ca 01       	movw	r24, r20
    1ee2:	aa 27       	eor	r26, r26
    1ee4:	bb 27       	eor	r27, r27
    1ee6:	57 01       	movw	r10, r14
    1ee8:	68 01       	movw	r12, r16
    1eea:	a8 0e       	add	r10, r24
    1eec:	b9 1e       	adc	r11, r25
    1eee:	ca 1e       	adc	r12, r26
    1ef0:	db 1e       	adc	r13, r27
    1ef2:	a9 01       	movw	r20, r18
    1ef4:	33 27       	eor	r19, r19
    1ef6:	22 27       	eor	r18, r18
    1ef8:	a9 96       	adiw	r28, 0x29	; 41
    1efa:	8c ad       	ldd	r24, Y+60	; 0x3c
    1efc:	9d ad       	ldd	r25, Y+61	; 0x3d
    1efe:	ae ad       	ldd	r26, Y+62	; 0x3e
    1f00:	bf ad       	ldd	r27, Y+63	; 0x3f
    1f02:	a9 97       	sbiw	r28, 0x29	; 41
    1f04:	a0 70       	andi	r26, 0x00	; 0
    1f06:	b0 70       	andi	r27, 0x00	; 0
    1f08:	28 0f       	add	r18, r24
    1f0a:	39 1f       	adc	r19, r25
    1f0c:	4a 1f       	adc	r20, r26
    1f0e:	5b 1f       	adc	r21, r27
    1f10:	e9 a8       	ldd	r14, Y+49	; 0x31
    1f12:	fa a8       	ldd	r15, Y+50	; 0x32
    1f14:	0b a9       	ldd	r16, Y+51	; 0x33
    1f16:	1c a9       	ldd	r17, Y+52	; 0x34
    1f18:	ea 14       	cp	r14, r10
    1f1a:	fb 04       	cpc	r15, r11
    1f1c:	0c 05       	cpc	r16, r12
    1f1e:	1d 05       	cpc	r17, r13
    1f20:	70 f0       	brcs	.+28     	; 0x1f3e <__moddi3+0xe5c>
    1f22:	ae 14       	cp	r10, r14
    1f24:	bf 04       	cpc	r11, r15
    1f26:	c0 06       	cpc	r12, r16
    1f28:	d1 06       	cpc	r13, r17
    1f2a:	89 f5       	brne	.+98     	; 0x1f8e <__moddi3+0xeac>
    1f2c:	6d a9       	ldd	r22, Y+53	; 0x35
    1f2e:	7e a9       	ldd	r23, Y+54	; 0x36
    1f30:	8f a9       	ldd	r24, Y+55	; 0x37
    1f32:	98 ad       	ldd	r25, Y+56	; 0x38
    1f34:	62 17       	cp	r22, r18
    1f36:	73 07       	cpc	r23, r19
    1f38:	84 07       	cpc	r24, r20
    1f3a:	95 07       	cpc	r25, r21
    1f3c:	40 f5       	brcc	.+80     	; 0x1f8e <__moddi3+0xeac>
    1f3e:	da 01       	movw	r26, r20
    1f40:	c9 01       	movw	r24, r18
    1f42:	21 96       	adiw	r28, 0x01	; 1
    1f44:	6c ac       	ldd	r6, Y+60	; 0x3c
    1f46:	7d ac       	ldd	r7, Y+61	; 0x3d
    1f48:	8e ac       	ldd	r8, Y+62	; 0x3e
    1f4a:	9f ac       	ldd	r9, Y+63	; 0x3f
    1f4c:	21 97       	sbiw	r28, 0x01	; 1
    1f4e:	86 19       	sub	r24, r6
    1f50:	97 09       	sbc	r25, r7
    1f52:	a8 09       	sbc	r26, r8
    1f54:	b9 09       	sbc	r27, r9
    1f56:	25 96       	adiw	r28, 0x05	; 5
    1f58:	ec ac       	ldd	r14, Y+60	; 0x3c
    1f5a:	fd ac       	ldd	r15, Y+61	; 0x3d
    1f5c:	0e ad       	ldd	r16, Y+62	; 0x3e
    1f5e:	1f ad       	ldd	r17, Y+63	; 0x3f
    1f60:	25 97       	sbiw	r28, 0x05	; 5
    1f62:	ae 18       	sub	r10, r14
    1f64:	bf 08       	sbc	r11, r15
    1f66:	c0 0a       	sbc	r12, r16
    1f68:	d1 0a       	sbc	r13, r17
    1f6a:	ee 24       	eor	r14, r14
    1f6c:	ff 24       	eor	r15, r15
    1f6e:	87 01       	movw	r16, r14
    1f70:	28 17       	cp	r18, r24
    1f72:	39 07       	cpc	r19, r25
    1f74:	4a 07       	cpc	r20, r26
    1f76:	5b 07       	cpc	r21, r27
    1f78:	28 f4       	brcc	.+10     	; 0x1f84 <__moddi3+0xea2>
    1f7a:	21 e0       	ldi	r18, 0x01	; 1
    1f7c:	e2 2e       	mov	r14, r18
    1f7e:	f1 2c       	mov	r15, r1
    1f80:	01 2d       	mov	r16, r1
    1f82:	11 2d       	mov	r17, r1
    1f84:	ae 18       	sub	r10, r14
    1f86:	bf 08       	sbc	r11, r15
    1f88:	c0 0a       	sbc	r12, r16
    1f8a:	d1 0a       	sbc	r13, r17
    1f8c:	02 c0       	rjmp	.+4      	; 0x1f92 <__moddi3+0xeb0>
    1f8e:	da 01       	movw	r26, r20
    1f90:	c9 01       	movw	r24, r18
    1f92:	6d a8       	ldd	r6, Y+53	; 0x35
    1f94:	7e a8       	ldd	r7, Y+54	; 0x36
    1f96:	8f a8       	ldd	r8, Y+55	; 0x37
    1f98:	98 ac       	ldd	r9, Y+56	; 0x38
    1f9a:	68 1a       	sub	r6, r24
    1f9c:	79 0a       	sbc	r7, r25
    1f9e:	8a 0a       	sbc	r8, r26
    1fa0:	9b 0a       	sbc	r9, r27
    1fa2:	09 a9       	ldd	r16, Y+49	; 0x31
    1fa4:	1a a9       	ldd	r17, Y+50	; 0x32
    1fa6:	2b a9       	ldd	r18, Y+51	; 0x33
    1fa8:	3c a9       	ldd	r19, Y+52	; 0x34
    1faa:	0a 19       	sub	r16, r10
    1fac:	1b 09       	sbc	r17, r11
    1fae:	2c 09       	sbc	r18, r12
    1fb0:	3d 09       	sbc	r19, r13
    1fb2:	58 01       	movw	r10, r16
    1fb4:	69 01       	movw	r12, r18
    1fb6:	22 24       	eor	r2, r2
    1fb8:	33 24       	eor	r3, r3
    1fba:	21 01       	movw	r4, r2
    1fbc:	2d a9       	ldd	r18, Y+53	; 0x35
    1fbe:	3e a9       	ldd	r19, Y+54	; 0x36
    1fc0:	4f a9       	ldd	r20, Y+55	; 0x37
    1fc2:	58 ad       	ldd	r21, Y+56	; 0x38
    1fc4:	26 15       	cp	r18, r6
    1fc6:	37 05       	cpc	r19, r7
    1fc8:	48 05       	cpc	r20, r8
    1fca:	59 05       	cpc	r21, r9
    1fcc:	28 f4       	brcc	.+10     	; 0x1fd8 <__moddi3+0xef6>
    1fce:	81 e0       	ldi	r24, 0x01	; 1
    1fd0:	28 2e       	mov	r2, r24
    1fd2:	31 2c       	mov	r3, r1
    1fd4:	41 2c       	mov	r4, r1
    1fd6:	51 2c       	mov	r5, r1
    1fd8:	86 01       	movw	r16, r12
    1fda:	75 01       	movw	r14, r10
    1fdc:	e2 18       	sub	r14, r2
    1fde:	f3 08       	sbc	r15, r3
    1fe0:	04 09       	sbc	r16, r4
    1fe2:	15 09       	sbc	r17, r5
    1fe4:	a8 01       	movw	r20, r16
    1fe6:	97 01       	movw	r18, r14
    1fe8:	e2 96       	adiw	r28, 0x32	; 50
    1fea:	0f ac       	ldd	r0, Y+63	; 0x3f
    1fec:	e2 97       	sbiw	r28, 0x32	; 50
    1fee:	04 c0       	rjmp	.+8      	; 0x1ff8 <__moddi3+0xf16>
    1ff0:	22 0f       	add	r18, r18
    1ff2:	33 1f       	adc	r19, r19
    1ff4:	44 1f       	adc	r20, r20
    1ff6:	55 1f       	adc	r21, r21
    1ff8:	0a 94       	dec	r0
    1ffa:	d2 f7       	brpl	.-12     	; 0x1ff0 <__moddi3+0xf0e>
    1ffc:	d4 01       	movw	r26, r8
    1ffe:	c3 01       	movw	r24, r6
    2000:	e3 96       	adiw	r28, 0x33	; 51
    2002:	0f ac       	ldd	r0, Y+63	; 0x3f
    2004:	e3 97       	sbiw	r28, 0x33	; 51
    2006:	04 c0       	rjmp	.+8      	; 0x2010 <__moddi3+0xf2e>
    2008:	b6 95       	lsr	r27
    200a:	a7 95       	ror	r26
    200c:	97 95       	ror	r25
    200e:	87 95       	ror	r24
    2010:	0a 94       	dec	r0
    2012:	d2 f7       	brpl	.-12     	; 0x2008 <__moddi3+0xf26>
    2014:	28 2b       	or	r18, r24
    2016:	39 2b       	or	r19, r25
    2018:	4a 2b       	or	r20, r26
    201a:	5b 2b       	or	r21, r27
    201c:	29 a7       	std	Y+41, r18	; 0x29
    201e:	3a a7       	std	Y+42, r19	; 0x2a
    2020:	4b a7       	std	Y+43, r20	; 0x2b
    2022:	5c a7       	std	Y+44, r21	; 0x2c
    2024:	e3 96       	adiw	r28, 0x33	; 51
    2026:	0f ac       	ldd	r0, Y+63	; 0x3f
    2028:	e3 97       	sbiw	r28, 0x33	; 51
    202a:	04 c0       	rjmp	.+8      	; 0x2034 <__moddi3+0xf52>
    202c:	16 95       	lsr	r17
    202e:	07 95       	ror	r16
    2030:	f7 94       	ror	r15
    2032:	e7 94       	ror	r14
    2034:	0a 94       	dec	r0
    2036:	d2 f7       	brpl	.-12     	; 0x202c <__moddi3+0xf4a>
    2038:	ed a6       	std	Y+45, r14	; 0x2d
    203a:	fe a6       	std	Y+46, r15	; 0x2e
    203c:	0f a7       	std	Y+47, r16	; 0x2f
    203e:	18 ab       	std	Y+48, r17	; 0x30
    2040:	29 8b       	std	Y+17, r18	; 0x11
    2042:	8a a5       	ldd	r24, Y+42	; 0x2a
    2044:	8a 8b       	std	Y+18, r24	; 0x12
    2046:	8b a5       	ldd	r24, Y+43	; 0x2b
    2048:	8b 8b       	std	Y+19, r24	; 0x13
    204a:	8c a5       	ldd	r24, Y+44	; 0x2c
    204c:	8c 8b       	std	Y+20, r24	; 0x14
    204e:	ed 8a       	std	Y+21, r14	; 0x15
    2050:	8e a5       	ldd	r24, Y+46	; 0x2e
    2052:	8e 8b       	std	Y+22, r24	; 0x16
    2054:	8f a5       	ldd	r24, Y+47	; 0x2f
    2056:	8f 8b       	std	Y+23, r24	; 0x17
    2058:	88 a9       	ldd	r24, Y+48	; 0x30
    205a:	88 8f       	std	Y+24, r24	; 0x18
    205c:	e1 96       	adiw	r28, 0x31	; 49
    205e:	4c ad       	ldd	r20, Y+60	; 0x3c
    2060:	5d ad       	ldd	r21, Y+61	; 0x3d
    2062:	6e ad       	ldd	r22, Y+62	; 0x3e
    2064:	7f ad       	ldd	r23, Y+63	; 0x3f
    2066:	e1 97       	sbiw	r28, 0x31	; 49
    2068:	41 15       	cp	r20, r1
    206a:	51 05       	cpc	r21, r1
    206c:	61 05       	cpc	r22, r1
    206e:	71 05       	cpc	r23, r1
    2070:	09 f4       	brne	.+2      	; 0x2074 <__moddi3+0xf92>
    2072:	67 c0       	rjmp	.+206    	; 0x2142 <__moddi3+0x1060>
    2074:	89 89       	ldd	r24, Y+17	; 0x11
    2076:	2a 89       	ldd	r18, Y+18	; 0x12
    2078:	3b 89       	ldd	r19, Y+19	; 0x13
    207a:	4c 89       	ldd	r20, Y+20	; 0x14
    207c:	5d 89       	ldd	r21, Y+21	; 0x15
    207e:	ae 89       	ldd	r26, Y+22	; 0x16
    2080:	bf 89       	ldd	r27, Y+23	; 0x17
    2082:	18 8d       	ldd	r17, Y+24	; 0x18
    2084:	f8 2f       	mov	r31, r24
    2086:	f1 95       	neg	r31
    2088:	91 e0       	ldi	r25, 0x01	; 1
    208a:	1f 16       	cp	r1, r31
    208c:	08 f0       	brcs	.+2      	; 0x2090 <__moddi3+0xfae>
    208e:	90 e0       	ldi	r25, 0x00	; 0
    2090:	82 2f       	mov	r24, r18
    2092:	81 95       	neg	r24
    2094:	21 e0       	ldi	r18, 0x01	; 1
    2096:	18 16       	cp	r1, r24
    2098:	08 f0       	brcs	.+2      	; 0x209c <__moddi3+0xfba>
    209a:	20 e0       	ldi	r18, 0x00	; 0
    209c:	e8 2f       	mov	r30, r24
    209e:	e9 1b       	sub	r30, r25
    20a0:	91 e0       	ldi	r25, 0x01	; 1
    20a2:	8e 17       	cp	r24, r30
    20a4:	08 f0       	brcs	.+2      	; 0x20a8 <__moddi3+0xfc6>
    20a6:	90 e0       	ldi	r25, 0x00	; 0
    20a8:	29 2b       	or	r18, r25
    20aa:	83 2f       	mov	r24, r19
    20ac:	81 95       	neg	r24
    20ae:	31 e0       	ldi	r19, 0x01	; 1
    20b0:	18 16       	cp	r1, r24
    20b2:	08 f0       	brcs	.+2      	; 0x20b6 <__moddi3+0xfd4>
    20b4:	30 e0       	ldi	r19, 0x00	; 0
    20b6:	78 2f       	mov	r23, r24
    20b8:	72 1b       	sub	r23, r18
    20ba:	91 e0       	ldi	r25, 0x01	; 1
    20bc:	87 17       	cp	r24, r23
    20be:	08 f0       	brcs	.+2      	; 0x20c2 <__moddi3+0xfe0>
    20c0:	90 e0       	ldi	r25, 0x00	; 0
    20c2:	39 2b       	or	r19, r25
    20c4:	84 2f       	mov	r24, r20
    20c6:	81 95       	neg	r24
    20c8:	21 e0       	ldi	r18, 0x01	; 1
    20ca:	18 16       	cp	r1, r24
    20cc:	08 f0       	brcs	.+2      	; 0x20d0 <__moddi3+0xfee>
    20ce:	20 e0       	ldi	r18, 0x00	; 0
    20d0:	68 2f       	mov	r22, r24
    20d2:	63 1b       	sub	r22, r19
    20d4:	91 e0       	ldi	r25, 0x01	; 1
    20d6:	86 17       	cp	r24, r22
    20d8:	08 f0       	brcs	.+2      	; 0x20dc <__moddi3+0xffa>
    20da:	90 e0       	ldi	r25, 0x00	; 0
    20dc:	29 2b       	or	r18, r25
    20de:	85 2f       	mov	r24, r21
    20e0:	81 95       	neg	r24
    20e2:	31 e0       	ldi	r19, 0x01	; 1
    20e4:	18 16       	cp	r1, r24
    20e6:	08 f0       	brcs	.+2      	; 0x20ea <__moddi3+0x1008>
    20e8:	30 e0       	ldi	r19, 0x00	; 0
    20ea:	58 2f       	mov	r21, r24
    20ec:	52 1b       	sub	r21, r18
    20ee:	91 e0       	ldi	r25, 0x01	; 1
    20f0:	85 17       	cp	r24, r21
    20f2:	08 f0       	brcs	.+2      	; 0x20f6 <__moddi3+0x1014>
    20f4:	90 e0       	ldi	r25, 0x00	; 0
    20f6:	39 2b       	or	r19, r25
    20f8:	8a 2f       	mov	r24, r26
    20fa:	81 95       	neg	r24
    20fc:	21 e0       	ldi	r18, 0x01	; 1
    20fe:	18 16       	cp	r1, r24
    2100:	08 f0       	brcs	.+2      	; 0x2104 <__moddi3+0x1022>
    2102:	20 e0       	ldi	r18, 0x00	; 0
    2104:	48 2f       	mov	r20, r24
    2106:	43 1b       	sub	r20, r19
    2108:	91 e0       	ldi	r25, 0x01	; 1
    210a:	84 17       	cp	r24, r20
    210c:	08 f0       	brcs	.+2      	; 0x2110 <__moddi3+0x102e>
    210e:	90 e0       	ldi	r25, 0x00	; 0
    2110:	29 2b       	or	r18, r25
    2112:	8b 2f       	mov	r24, r27
    2114:	81 95       	neg	r24
    2116:	91 e0       	ldi	r25, 0x01	; 1
    2118:	18 16       	cp	r1, r24
    211a:	08 f0       	brcs	.+2      	; 0x211e <__moddi3+0x103c>
    211c:	90 e0       	ldi	r25, 0x00	; 0
    211e:	38 2f       	mov	r19, r24
    2120:	32 1b       	sub	r19, r18
    2122:	21 e0       	ldi	r18, 0x01	; 1
    2124:	83 17       	cp	r24, r19
    2126:	08 f0       	brcs	.+2      	; 0x212a <__moddi3+0x1048>
    2128:	20 e0       	ldi	r18, 0x00	; 0
    212a:	92 2b       	or	r25, r18
    212c:	81 2f       	mov	r24, r17
    212e:	81 95       	neg	r24
    2130:	89 1b       	sub	r24, r25
    2132:	f9 8b       	std	Y+17, r31	; 0x11
    2134:	ea 8b       	std	Y+18, r30	; 0x12
    2136:	7b 8b       	std	Y+19, r23	; 0x13
    2138:	6c 8b       	std	Y+20, r22	; 0x14
    213a:	5d 8b       	std	Y+21, r21	; 0x15
    213c:	4e 8b       	std	Y+22, r20	; 0x16
    213e:	3f 8b       	std	Y+23, r19	; 0x17
    2140:	88 8f       	std	Y+24, r24	; 0x18
    2142:	29 89       	ldd	r18, Y+17	; 0x11
    2144:	3a 89       	ldd	r19, Y+18	; 0x12
    2146:	4b 89       	ldd	r20, Y+19	; 0x13
    2148:	5c 89       	ldd	r21, Y+20	; 0x14
    214a:	6d 89       	ldd	r22, Y+21	; 0x15
    214c:	7e 89       	ldd	r23, Y+22	; 0x16
    214e:	8f 89       	ldd	r24, Y+23	; 0x17
    2150:	98 8d       	ldd	r25, Y+24	; 0x18
    2152:	c9 58       	subi	r28, 0x89	; 137
    2154:	df 4f       	sbci	r29, 0xFF	; 255
    2156:	e2 e1       	ldi	r30, 0x12	; 18
    2158:	0c 94 54 22 	jmp	0x44a8	; 0x44a8 <__epilogue_restores__>

0000215c <DIO_InitPin>:
    215c:	98 2f       	mov	r25, r24
    215e:	96 95       	lsr	r25
    2160:	96 95       	lsr	r25
    2162:	96 95       	lsr	r25
    2164:	48 2f       	mov	r20, r24
    2166:	47 70       	andi	r20, 0x07	; 7
    2168:	61 30       	cpi	r22, 0x01	; 1
    216a:	09 f4       	brne	.+2      	; 0x216e <DIO_InitPin+0x12>
    216c:	82 c0       	rjmp	.+260    	; 0x2272 <DIO_InitPin+0x116>
    216e:	61 30       	cpi	r22, 0x01	; 1
    2170:	20 f0       	brcs	.+8      	; 0x217a <DIO_InitPin+0x1e>
    2172:	62 30       	cpi	r22, 0x02	; 2
    2174:	09 f0       	breq	.+2      	; 0x2178 <DIO_InitPin+0x1c>
    2176:	c2 c0       	rjmp	.+388    	; 0x22fc <DIO_InitPin+0x1a0>
    2178:	36 c0       	rjmp	.+108    	; 0x21e6 <DIO_InitPin+0x8a>
    217a:	91 30       	cpi	r25, 0x01	; 1
    217c:	99 f0       	breq	.+38     	; 0x21a4 <DIO_InitPin+0x48>
    217e:	91 30       	cpi	r25, 0x01	; 1
    2180:	30 f0       	brcs	.+12     	; 0x218e <DIO_InitPin+0x32>
    2182:	92 30       	cpi	r25, 0x02	; 2
    2184:	d1 f0       	breq	.+52     	; 0x21ba <DIO_InitPin+0x5e>
    2186:	93 30       	cpi	r25, 0x03	; 3
    2188:	09 f0       	breq	.+2      	; 0x218c <DIO_InitPin+0x30>
    218a:	b8 c0       	rjmp	.+368    	; 0x22fc <DIO_InitPin+0x1a0>
    218c:	21 c0       	rjmp	.+66     	; 0x21d0 <DIO_InitPin+0x74>
    218e:	2a b3       	in	r18, 0x1a	; 26
    2190:	81 e0       	ldi	r24, 0x01	; 1
    2192:	90 e0       	ldi	r25, 0x00	; 0
    2194:	02 c0       	rjmp	.+4      	; 0x219a <DIO_InitPin+0x3e>
    2196:	88 0f       	add	r24, r24
    2198:	99 1f       	adc	r25, r25
    219a:	4a 95       	dec	r20
    219c:	e2 f7       	brpl	.-8      	; 0x2196 <DIO_InitPin+0x3a>
    219e:	28 2b       	or	r18, r24
    21a0:	2a bb       	out	0x1a, r18	; 26
    21a2:	08 95       	ret
    21a4:	27 b3       	in	r18, 0x17	; 23
    21a6:	81 e0       	ldi	r24, 0x01	; 1
    21a8:	90 e0       	ldi	r25, 0x00	; 0
    21aa:	02 c0       	rjmp	.+4      	; 0x21b0 <DIO_InitPin+0x54>
    21ac:	88 0f       	add	r24, r24
    21ae:	99 1f       	adc	r25, r25
    21b0:	4a 95       	dec	r20
    21b2:	e2 f7       	brpl	.-8      	; 0x21ac <DIO_InitPin+0x50>
    21b4:	28 2b       	or	r18, r24
    21b6:	27 bb       	out	0x17, r18	; 23
    21b8:	08 95       	ret
    21ba:	24 b3       	in	r18, 0x14	; 20
    21bc:	81 e0       	ldi	r24, 0x01	; 1
    21be:	90 e0       	ldi	r25, 0x00	; 0
    21c0:	02 c0       	rjmp	.+4      	; 0x21c6 <DIO_InitPin+0x6a>
    21c2:	88 0f       	add	r24, r24
    21c4:	99 1f       	adc	r25, r25
    21c6:	4a 95       	dec	r20
    21c8:	e2 f7       	brpl	.-8      	; 0x21c2 <DIO_InitPin+0x66>
    21ca:	28 2b       	or	r18, r24
    21cc:	24 bb       	out	0x14, r18	; 20
    21ce:	08 95       	ret
    21d0:	21 b3       	in	r18, 0x11	; 17
    21d2:	81 e0       	ldi	r24, 0x01	; 1
    21d4:	90 e0       	ldi	r25, 0x00	; 0
    21d6:	02 c0       	rjmp	.+4      	; 0x21dc <DIO_InitPin+0x80>
    21d8:	88 0f       	add	r24, r24
    21da:	99 1f       	adc	r25, r25
    21dc:	4a 95       	dec	r20
    21de:	e2 f7       	brpl	.-8      	; 0x21d8 <DIO_InitPin+0x7c>
    21e0:	28 2b       	or	r18, r24
    21e2:	21 bb       	out	0x11, r18	; 17
    21e4:	08 95       	ret
    21e6:	91 30       	cpi	r25, 0x01	; 1
    21e8:	b9 f0       	breq	.+46     	; 0x2218 <DIO_InitPin+0xbc>
    21ea:	91 30       	cpi	r25, 0x01	; 1
    21ec:	30 f0       	brcs	.+12     	; 0x21fa <DIO_InitPin+0x9e>
    21ee:	92 30       	cpi	r25, 0x02	; 2
    21f0:	11 f1       	breq	.+68     	; 0x2236 <DIO_InitPin+0xda>
    21f2:	93 30       	cpi	r25, 0x03	; 3
    21f4:	09 f0       	breq	.+2      	; 0x21f8 <DIO_InitPin+0x9c>
    21f6:	82 c0       	rjmp	.+260    	; 0x22fc <DIO_InitPin+0x1a0>
    21f8:	2d c0       	rjmp	.+90     	; 0x2254 <DIO_InitPin+0xf8>
    21fa:	3a b3       	in	r19, 0x1a	; 26
    21fc:	81 e0       	ldi	r24, 0x01	; 1
    21fe:	90 e0       	ldi	r25, 0x00	; 0
    2200:	01 c0       	rjmp	.+2      	; 0x2204 <DIO_InitPin+0xa8>
    2202:	88 0f       	add	r24, r24
    2204:	4a 95       	dec	r20
    2206:	ea f7       	brpl	.-6      	; 0x2202 <DIO_InitPin+0xa6>
    2208:	28 2f       	mov	r18, r24
    220a:	20 95       	com	r18
    220c:	23 23       	and	r18, r19
    220e:	2a bb       	out	0x1a, r18	; 26
    2210:	2b b3       	in	r18, 0x1b	; 27
    2212:	82 2b       	or	r24, r18
    2214:	8b bb       	out	0x1b, r24	; 27
    2216:	08 95       	ret
    2218:	37 b3       	in	r19, 0x17	; 23
    221a:	81 e0       	ldi	r24, 0x01	; 1
    221c:	90 e0       	ldi	r25, 0x00	; 0
    221e:	01 c0       	rjmp	.+2      	; 0x2222 <DIO_InitPin+0xc6>
    2220:	88 0f       	add	r24, r24
    2222:	4a 95       	dec	r20
    2224:	ea f7       	brpl	.-6      	; 0x2220 <DIO_InitPin+0xc4>
    2226:	28 2f       	mov	r18, r24
    2228:	20 95       	com	r18
    222a:	23 23       	and	r18, r19
    222c:	27 bb       	out	0x17, r18	; 23
    222e:	28 b3       	in	r18, 0x18	; 24
    2230:	82 2b       	or	r24, r18
    2232:	88 bb       	out	0x18, r24	; 24
    2234:	08 95       	ret
    2236:	34 b3       	in	r19, 0x14	; 20
    2238:	81 e0       	ldi	r24, 0x01	; 1
    223a:	90 e0       	ldi	r25, 0x00	; 0
    223c:	01 c0       	rjmp	.+2      	; 0x2240 <DIO_InitPin+0xe4>
    223e:	88 0f       	add	r24, r24
    2240:	4a 95       	dec	r20
    2242:	ea f7       	brpl	.-6      	; 0x223e <DIO_InitPin+0xe2>
    2244:	28 2f       	mov	r18, r24
    2246:	20 95       	com	r18
    2248:	23 23       	and	r18, r19
    224a:	24 bb       	out	0x14, r18	; 20
    224c:	25 b3       	in	r18, 0x15	; 21
    224e:	82 2b       	or	r24, r18
    2250:	85 bb       	out	0x15, r24	; 21
    2252:	08 95       	ret
    2254:	31 b3       	in	r19, 0x11	; 17
    2256:	81 e0       	ldi	r24, 0x01	; 1
    2258:	90 e0       	ldi	r25, 0x00	; 0
    225a:	01 c0       	rjmp	.+2      	; 0x225e <DIO_InitPin+0x102>
    225c:	88 0f       	add	r24, r24
    225e:	4a 95       	dec	r20
    2260:	ea f7       	brpl	.-6      	; 0x225c <DIO_InitPin+0x100>
    2262:	28 2f       	mov	r18, r24
    2264:	20 95       	com	r18
    2266:	23 23       	and	r18, r19
    2268:	21 bb       	out	0x11, r18	; 17
    226a:	22 b3       	in	r18, 0x12	; 18
    226c:	82 2b       	or	r24, r18
    226e:	82 bb       	out	0x12, r24	; 18
    2270:	08 95       	ret
    2272:	91 30       	cpi	r25, 0x01	; 1
    2274:	b9 f0       	breq	.+46     	; 0x22a4 <DIO_InitPin+0x148>
    2276:	91 30       	cpi	r25, 0x01	; 1
    2278:	30 f0       	brcs	.+12     	; 0x2286 <DIO_InitPin+0x12a>
    227a:	92 30       	cpi	r25, 0x02	; 2
    227c:	11 f1       	breq	.+68     	; 0x22c2 <DIO_InitPin+0x166>
    227e:	93 30       	cpi	r25, 0x03	; 3
    2280:	09 f0       	breq	.+2      	; 0x2284 <DIO_InitPin+0x128>
    2282:	3c c0       	rjmp	.+120    	; 0x22fc <DIO_InitPin+0x1a0>
    2284:	2d c0       	rjmp	.+90     	; 0x22e0 <DIO_InitPin+0x184>
    2286:	8a b3       	in	r24, 0x1a	; 26
    2288:	21 e0       	ldi	r18, 0x01	; 1
    228a:	30 e0       	ldi	r19, 0x00	; 0
    228c:	02 c0       	rjmp	.+4      	; 0x2292 <DIO_InitPin+0x136>
    228e:	22 0f       	add	r18, r18
    2290:	33 1f       	adc	r19, r19
    2292:	4a 95       	dec	r20
    2294:	e2 f7       	brpl	.-8      	; 0x228e <DIO_InitPin+0x132>
    2296:	20 95       	com	r18
    2298:	82 23       	and	r24, r18
    229a:	8a bb       	out	0x1a, r24	; 26
    229c:	8b b3       	in	r24, 0x1b	; 27
    229e:	28 23       	and	r18, r24
    22a0:	2b bb       	out	0x1b, r18	; 27
    22a2:	08 95       	ret
    22a4:	87 b3       	in	r24, 0x17	; 23
    22a6:	21 e0       	ldi	r18, 0x01	; 1
    22a8:	30 e0       	ldi	r19, 0x00	; 0
    22aa:	02 c0       	rjmp	.+4      	; 0x22b0 <DIO_InitPin+0x154>
    22ac:	22 0f       	add	r18, r18
    22ae:	33 1f       	adc	r19, r19
    22b0:	4a 95       	dec	r20
    22b2:	e2 f7       	brpl	.-8      	; 0x22ac <DIO_InitPin+0x150>
    22b4:	20 95       	com	r18
    22b6:	82 23       	and	r24, r18
    22b8:	87 bb       	out	0x17, r24	; 23
    22ba:	88 b3       	in	r24, 0x18	; 24
    22bc:	28 23       	and	r18, r24
    22be:	28 bb       	out	0x18, r18	; 24
    22c0:	08 95       	ret
    22c2:	84 b3       	in	r24, 0x14	; 20
    22c4:	21 e0       	ldi	r18, 0x01	; 1
    22c6:	30 e0       	ldi	r19, 0x00	; 0
    22c8:	02 c0       	rjmp	.+4      	; 0x22ce <DIO_InitPin+0x172>
    22ca:	22 0f       	add	r18, r18
    22cc:	33 1f       	adc	r19, r19
    22ce:	4a 95       	dec	r20
    22d0:	e2 f7       	brpl	.-8      	; 0x22ca <DIO_InitPin+0x16e>
    22d2:	20 95       	com	r18
    22d4:	82 23       	and	r24, r18
    22d6:	84 bb       	out	0x14, r24	; 20
    22d8:	85 b3       	in	r24, 0x15	; 21
    22da:	28 23       	and	r18, r24
    22dc:	25 bb       	out	0x15, r18	; 21
    22de:	08 95       	ret
    22e0:	81 b3       	in	r24, 0x11	; 17
    22e2:	21 e0       	ldi	r18, 0x01	; 1
    22e4:	30 e0       	ldi	r19, 0x00	; 0
    22e6:	02 c0       	rjmp	.+4      	; 0x22ec <DIO_InitPin+0x190>
    22e8:	22 0f       	add	r18, r18
    22ea:	33 1f       	adc	r19, r19
    22ec:	4a 95       	dec	r20
    22ee:	e2 f7       	brpl	.-8      	; 0x22e8 <DIO_InitPin+0x18c>
    22f0:	20 95       	com	r18
    22f2:	82 23       	and	r24, r18
    22f4:	81 bb       	out	0x11, r24	; 17
    22f6:	82 b3       	in	r24, 0x12	; 18
    22f8:	28 23       	and	r18, r24
    22fa:	22 bb       	out	0x12, r18	; 18
    22fc:	08 95       	ret

000022fe <DIO_Init>:
    22fe:	1f 93       	push	r17
    2300:	cf 93       	push	r28
    2302:	df 93       	push	r29
    2304:	10 e0       	ldi	r17, 0x00	; 0
    2306:	c0 e0       	ldi	r28, 0x00	; 0
    2308:	d0 e0       	ldi	r29, 0x00	; 0
    230a:	e1 2f       	mov	r30, r17
    230c:	f0 e0       	ldi	r31, 0x00	; 0
    230e:	e9 59       	subi	r30, 0x99	; 153
    2310:	fe 4f       	sbci	r31, 0xFE	; 254
    2312:	81 2f       	mov	r24, r17
    2314:	60 81       	ld	r22, Z
    2316:	0e 94 ae 10 	call	0x215c	; 0x215c <DIO_InitPin>
    231a:	1f 5f       	subi	r17, 0xFF	; 255
    231c:	21 96       	adiw	r28, 0x01	; 1
    231e:	c0 32       	cpi	r28, 0x20	; 32
    2320:	d1 05       	cpc	r29, r1
    2322:	99 f7       	brne	.-26     	; 0x230a <DIO_Init+0xc>
    2324:	df 91       	pop	r29
    2326:	cf 91       	pop	r28
    2328:	1f 91       	pop	r17
    232a:	08 95       	ret

0000232c <DIO_WritePin>:
    232c:	38 2f       	mov	r19, r24
    232e:	37 70       	andi	r19, 0x07	; 7
    2330:	86 95       	lsr	r24
    2332:	86 95       	lsr	r24
    2334:	86 95       	lsr	r24
    2336:	81 30       	cpi	r24, 0x01	; 1
    2338:	09 f1       	breq	.+66     	; 0x237c <DIO_WritePin+0x50>
    233a:	81 30       	cpi	r24, 0x01	; 1
    233c:	30 f0       	brcs	.+12     	; 0x234a <DIO_WritePin+0x1e>
    233e:	82 30       	cpi	r24, 0x02	; 2
    2340:	b1 f1       	breq	.+108    	; 0x23ae <DIO_WritePin+0x82>
    2342:	83 30       	cpi	r24, 0x03	; 3
    2344:	09 f0       	breq	.+2      	; 0x2348 <DIO_WritePin+0x1c>
    2346:	64 c0       	rjmp	.+200    	; 0x2410 <DIO_WritePin+0xe4>
    2348:	4b c0       	rjmp	.+150    	; 0x23e0 <DIO_WritePin+0xb4>
    234a:	61 30       	cpi	r22, 0x01	; 1
    234c:	59 f4       	brne	.+22     	; 0x2364 <DIO_WritePin+0x38>
    234e:	2b b3       	in	r18, 0x1b	; 27
    2350:	81 e0       	ldi	r24, 0x01	; 1
    2352:	90 e0       	ldi	r25, 0x00	; 0
    2354:	02 c0       	rjmp	.+4      	; 0x235a <DIO_WritePin+0x2e>
    2356:	88 0f       	add	r24, r24
    2358:	99 1f       	adc	r25, r25
    235a:	3a 95       	dec	r19
    235c:	e2 f7       	brpl	.-8      	; 0x2356 <DIO_WritePin+0x2a>
    235e:	28 2b       	or	r18, r24
    2360:	2b bb       	out	0x1b, r18	; 27
    2362:	08 95       	ret
    2364:	2b b3       	in	r18, 0x1b	; 27
    2366:	81 e0       	ldi	r24, 0x01	; 1
    2368:	90 e0       	ldi	r25, 0x00	; 0
    236a:	02 c0       	rjmp	.+4      	; 0x2370 <DIO_WritePin+0x44>
    236c:	88 0f       	add	r24, r24
    236e:	99 1f       	adc	r25, r25
    2370:	3a 95       	dec	r19
    2372:	e2 f7       	brpl	.-8      	; 0x236c <DIO_WritePin+0x40>
    2374:	80 95       	com	r24
    2376:	82 23       	and	r24, r18
    2378:	8b bb       	out	0x1b, r24	; 27
    237a:	08 95       	ret
    237c:	61 30       	cpi	r22, 0x01	; 1
    237e:	59 f4       	brne	.+22     	; 0x2396 <DIO_WritePin+0x6a>
    2380:	28 b3       	in	r18, 0x18	; 24
    2382:	81 e0       	ldi	r24, 0x01	; 1
    2384:	90 e0       	ldi	r25, 0x00	; 0
    2386:	02 c0       	rjmp	.+4      	; 0x238c <DIO_WritePin+0x60>
    2388:	88 0f       	add	r24, r24
    238a:	99 1f       	adc	r25, r25
    238c:	3a 95       	dec	r19
    238e:	e2 f7       	brpl	.-8      	; 0x2388 <DIO_WritePin+0x5c>
    2390:	28 2b       	or	r18, r24
    2392:	28 bb       	out	0x18, r18	; 24
    2394:	08 95       	ret
    2396:	28 b3       	in	r18, 0x18	; 24
    2398:	81 e0       	ldi	r24, 0x01	; 1
    239a:	90 e0       	ldi	r25, 0x00	; 0
    239c:	02 c0       	rjmp	.+4      	; 0x23a2 <DIO_WritePin+0x76>
    239e:	88 0f       	add	r24, r24
    23a0:	99 1f       	adc	r25, r25
    23a2:	3a 95       	dec	r19
    23a4:	e2 f7       	brpl	.-8      	; 0x239e <DIO_WritePin+0x72>
    23a6:	80 95       	com	r24
    23a8:	82 23       	and	r24, r18
    23aa:	88 bb       	out	0x18, r24	; 24
    23ac:	08 95       	ret
    23ae:	61 30       	cpi	r22, 0x01	; 1
    23b0:	59 f4       	brne	.+22     	; 0x23c8 <DIO_WritePin+0x9c>
    23b2:	25 b3       	in	r18, 0x15	; 21
    23b4:	81 e0       	ldi	r24, 0x01	; 1
    23b6:	90 e0       	ldi	r25, 0x00	; 0
    23b8:	02 c0       	rjmp	.+4      	; 0x23be <DIO_WritePin+0x92>
    23ba:	88 0f       	add	r24, r24
    23bc:	99 1f       	adc	r25, r25
    23be:	3a 95       	dec	r19
    23c0:	e2 f7       	brpl	.-8      	; 0x23ba <DIO_WritePin+0x8e>
    23c2:	28 2b       	or	r18, r24
    23c4:	25 bb       	out	0x15, r18	; 21
    23c6:	08 95       	ret
    23c8:	25 b3       	in	r18, 0x15	; 21
    23ca:	81 e0       	ldi	r24, 0x01	; 1
    23cc:	90 e0       	ldi	r25, 0x00	; 0
    23ce:	02 c0       	rjmp	.+4      	; 0x23d4 <DIO_WritePin+0xa8>
    23d0:	88 0f       	add	r24, r24
    23d2:	99 1f       	adc	r25, r25
    23d4:	3a 95       	dec	r19
    23d6:	e2 f7       	brpl	.-8      	; 0x23d0 <DIO_WritePin+0xa4>
    23d8:	80 95       	com	r24
    23da:	82 23       	and	r24, r18
    23dc:	85 bb       	out	0x15, r24	; 21
    23de:	08 95       	ret
    23e0:	61 30       	cpi	r22, 0x01	; 1
    23e2:	59 f4       	brne	.+22     	; 0x23fa <DIO_WritePin+0xce>
    23e4:	22 b3       	in	r18, 0x12	; 18
    23e6:	81 e0       	ldi	r24, 0x01	; 1
    23e8:	90 e0       	ldi	r25, 0x00	; 0
    23ea:	02 c0       	rjmp	.+4      	; 0x23f0 <DIO_WritePin+0xc4>
    23ec:	88 0f       	add	r24, r24
    23ee:	99 1f       	adc	r25, r25
    23f0:	3a 95       	dec	r19
    23f2:	e2 f7       	brpl	.-8      	; 0x23ec <DIO_WritePin+0xc0>
    23f4:	28 2b       	or	r18, r24
    23f6:	22 bb       	out	0x12, r18	; 18
    23f8:	08 95       	ret
    23fa:	22 b3       	in	r18, 0x12	; 18
    23fc:	81 e0       	ldi	r24, 0x01	; 1
    23fe:	90 e0       	ldi	r25, 0x00	; 0
    2400:	02 c0       	rjmp	.+4      	; 0x2406 <DIO_WritePin+0xda>
    2402:	88 0f       	add	r24, r24
    2404:	99 1f       	adc	r25, r25
    2406:	3a 95       	dec	r19
    2408:	e2 f7       	brpl	.-8      	; 0x2402 <DIO_WritePin+0xd6>
    240a:	80 95       	com	r24
    240c:	82 23       	and	r24, r18
    240e:	82 bb       	out	0x12, r24	; 18
    2410:	08 95       	ret

00002412 <DIO_ReadPin>:
    2412:	28 2f       	mov	r18, r24
    2414:	27 70       	andi	r18, 0x07	; 7
    2416:	86 95       	lsr	r24
    2418:	86 95       	lsr	r24
    241a:	86 95       	lsr	r24
    241c:	81 30       	cpi	r24, 0x01	; 1
    241e:	51 f0       	breq	.+20     	; 0x2434 <DIO_ReadPin+0x22>
    2420:	81 30       	cpi	r24, 0x01	; 1
    2422:	30 f0       	brcs	.+12     	; 0x2430 <DIO_ReadPin+0x1e>
    2424:	82 30       	cpi	r24, 0x02	; 2
    2426:	41 f0       	breq	.+16     	; 0x2438 <DIO_ReadPin+0x26>
    2428:	83 30       	cpi	r24, 0x03	; 3
    242a:	79 f0       	breq	.+30     	; 0x244a <DIO_ReadPin+0x38>
    242c:	80 e0       	ldi	r24, 0x00	; 0
    242e:	08 95       	ret
    2430:	89 b3       	in	r24, 0x19	; 25
    2432:	03 c0       	rjmp	.+6      	; 0x243a <DIO_ReadPin+0x28>
    2434:	86 b3       	in	r24, 0x16	; 22
    2436:	01 c0       	rjmp	.+2      	; 0x243a <DIO_ReadPin+0x28>
    2438:	83 b3       	in	r24, 0x13	; 19
    243a:	90 e0       	ldi	r25, 0x00	; 0
    243c:	02 c0       	rjmp	.+4      	; 0x2442 <DIO_ReadPin+0x30>
    243e:	95 95       	asr	r25
    2440:	87 95       	ror	r24
    2442:	2a 95       	dec	r18
    2444:	e2 f7       	brpl	.-8      	; 0x243e <DIO_ReadPin+0x2c>
    2446:	81 70       	andi	r24, 0x01	; 1
    2448:	08 95       	ret
    244a:	80 b3       	in	r24, 0x10	; 16
    244c:	90 e0       	ldi	r25, 0x00	; 0
    244e:	02 c0       	rjmp	.+4      	; 0x2454 <DIO_ReadPin+0x42>
    2450:	95 95       	asr	r25
    2452:	87 95       	ror	r24
    2454:	2a 95       	dec	r18
    2456:	e2 f7       	brpl	.-8      	; 0x2450 <DIO_ReadPin+0x3e>
    2458:	81 70       	andi	r24, 0x01	; 1
    245a:	08 95       	ret

0000245c <DIO_TogglePin>:
    245c:	38 2f       	mov	r19, r24
    245e:	37 70       	andi	r19, 0x07	; 7
    2460:	86 95       	lsr	r24
    2462:	86 95       	lsr	r24
    2464:	86 95       	lsr	r24
    2466:	81 30       	cpi	r24, 0x01	; 1
    2468:	91 f0       	breq	.+36     	; 0x248e <DIO_TogglePin+0x32>
    246a:	81 30       	cpi	r24, 0x01	; 1
    246c:	28 f0       	brcs	.+10     	; 0x2478 <DIO_TogglePin+0x1c>
    246e:	82 30       	cpi	r24, 0x02	; 2
    2470:	c9 f0       	breq	.+50     	; 0x24a4 <DIO_TogglePin+0x48>
    2472:	83 30       	cpi	r24, 0x03	; 3
    2474:	61 f5       	brne	.+88     	; 0x24ce <DIO_TogglePin+0x72>
    2476:	21 c0       	rjmp	.+66     	; 0x24ba <DIO_TogglePin+0x5e>
    2478:	2b b3       	in	r18, 0x1b	; 27
    247a:	81 e0       	ldi	r24, 0x01	; 1
    247c:	90 e0       	ldi	r25, 0x00	; 0
    247e:	02 c0       	rjmp	.+4      	; 0x2484 <DIO_TogglePin+0x28>
    2480:	88 0f       	add	r24, r24
    2482:	99 1f       	adc	r25, r25
    2484:	3a 95       	dec	r19
    2486:	e2 f7       	brpl	.-8      	; 0x2480 <DIO_TogglePin+0x24>
    2488:	28 27       	eor	r18, r24
    248a:	2b bb       	out	0x1b, r18	; 27
    248c:	08 95       	ret
    248e:	28 b3       	in	r18, 0x18	; 24
    2490:	81 e0       	ldi	r24, 0x01	; 1
    2492:	90 e0       	ldi	r25, 0x00	; 0
    2494:	02 c0       	rjmp	.+4      	; 0x249a <DIO_TogglePin+0x3e>
    2496:	88 0f       	add	r24, r24
    2498:	99 1f       	adc	r25, r25
    249a:	3a 95       	dec	r19
    249c:	e2 f7       	brpl	.-8      	; 0x2496 <DIO_TogglePin+0x3a>
    249e:	28 27       	eor	r18, r24
    24a0:	28 bb       	out	0x18, r18	; 24
    24a2:	08 95       	ret
    24a4:	25 b3       	in	r18, 0x15	; 21
    24a6:	81 e0       	ldi	r24, 0x01	; 1
    24a8:	90 e0       	ldi	r25, 0x00	; 0
    24aa:	02 c0       	rjmp	.+4      	; 0x24b0 <DIO_TogglePin+0x54>
    24ac:	88 0f       	add	r24, r24
    24ae:	99 1f       	adc	r25, r25
    24b0:	3a 95       	dec	r19
    24b2:	e2 f7       	brpl	.-8      	; 0x24ac <DIO_TogglePin+0x50>
    24b4:	28 27       	eor	r18, r24
    24b6:	25 bb       	out	0x15, r18	; 21
    24b8:	08 95       	ret
    24ba:	22 b3       	in	r18, 0x12	; 18
    24bc:	81 e0       	ldi	r24, 0x01	; 1
    24be:	90 e0       	ldi	r25, 0x00	; 0
    24c0:	02 c0       	rjmp	.+4      	; 0x24c6 <DIO_TogglePin+0x6a>
    24c2:	88 0f       	add	r24, r24
    24c4:	99 1f       	adc	r25, r25
    24c6:	3a 95       	dec	r19
    24c8:	e2 f7       	brpl	.-8      	; 0x24c2 <DIO_TogglePin+0x66>
    24ca:	28 27       	eor	r18, r24
    24cc:	22 bb       	out	0x12, r18	; 18
    24ce:	08 95       	ret

000024d0 <DIO_WritePort>:
    24d0:	81 30       	cpi	r24, 0x01	; 1
    24d2:	49 f0       	breq	.+18     	; 0x24e6 <DIO_WritePort+0x16>
    24d4:	81 30       	cpi	r24, 0x01	; 1
    24d6:	28 f0       	brcs	.+10     	; 0x24e2 <DIO_WritePort+0x12>
    24d8:	82 30       	cpi	r24, 0x02	; 2
    24da:	39 f0       	breq	.+14     	; 0x24ea <DIO_WritePort+0x1a>
    24dc:	83 30       	cpi	r24, 0x03	; 3
    24de:	41 f4       	brne	.+16     	; 0x24f0 <DIO_WritePort+0x20>
    24e0:	06 c0       	rjmp	.+12     	; 0x24ee <DIO_WritePort+0x1e>
    24e2:	6b bb       	out	0x1b, r22	; 27
    24e4:	08 95       	ret
    24e6:	68 bb       	out	0x18, r22	; 24
    24e8:	08 95       	ret
    24ea:	65 bb       	out	0x15, r22	; 21
    24ec:	08 95       	ret
    24ee:	62 bb       	out	0x12, r22	; 18
    24f0:	08 95       	ret

000024f2 <UART_Init>:
    24f2:	83 e3       	ldi	r24, 0x33	; 51
    24f4:	89 b9       	out	0x09, r24	; 9
    24f6:	59 98       	cbi	0x0b, 1	; 11
    24f8:	53 9a       	sbi	0x0a, 3	; 10
    24fa:	54 9a       	sbi	0x0a, 4	; 10
    24fc:	08 95       	ret

000024fe <UART_Send>:
    24fe:	5d 9b       	sbis	0x0b, 5	; 11
    2500:	fe cf       	rjmp	.-4      	; 0x24fe <UART_Send>
    2502:	8c b9       	out	0x0c, r24	; 12
    2504:	08 95       	ret

00002506 <UART_Receive>:
    2506:	5f 9b       	sbis	0x0b, 7	; 11
    2508:	fe cf       	rjmp	.-4      	; 0x2506 <UART_Receive>
    250a:	8c b1       	in	r24, 0x0c	; 12
    250c:	08 95       	ret

0000250e <UART_RecievePerodic>:
    250e:	fc 01       	movw	r30, r24
    2510:	5f 99       	sbic	0x0b, 7	; 11
    2512:	02 c0       	rjmp	.+4      	; 0x2518 <UART_RecievePerodic+0xa>
    2514:	80 e0       	ldi	r24, 0x00	; 0
    2516:	08 95       	ret
    2518:	8c b1       	in	r24, 0x0c	; 12
    251a:	80 83       	st	Z, r24
    251c:	81 e0       	ldi	r24, 0x01	; 1
    251e:	08 95       	ret

00002520 <UART_ReceiveNoBlock>:
    2520:	8c b1       	in	r24, 0x0c	; 12
    2522:	08 95       	ret

00002524 <UART_SendNoBlock>:
    2524:	8c b9       	out	0x0c, r24	; 12
    2526:	08 95       	ret

00002528 <RX_InterruptEnable>:
    2528:	57 9a       	sbi	0x0a, 7	; 10
    252a:	08 95       	ret

0000252c <RX_InterruptDisable>:
    252c:	57 98       	cbi	0x0a, 7	; 10
    252e:	08 95       	ret

00002530 <TX_InterruptEnable>:
    2530:	56 9a       	sbi	0x0a, 6	; 10
    2532:	08 95       	ret

00002534 <TX_InterruptDisable>:
    2534:	56 98       	cbi	0x0a, 6	; 10
    2536:	08 95       	ret

00002538 <Set_TX_CallBack>:
    2538:	90 93 8b 01 	sts	0x018B, r25
    253c:	80 93 8a 01 	sts	0x018A, r24
    2540:	08 95       	ret

00002542 <Set_RX_CallBack>:
    2542:	90 93 89 01 	sts	0x0189, r25
    2546:	80 93 88 01 	sts	0x0188, r24
    254a:	08 95       	ret

0000254c <__vector_15>:
    254c:	1f 92       	push	r1
    254e:	0f 92       	push	r0
    2550:	0f b6       	in	r0, 0x3f	; 63
    2552:	0f 92       	push	r0
    2554:	11 24       	eor	r1, r1
    2556:	2f 93       	push	r18
    2558:	3f 93       	push	r19
    255a:	4f 93       	push	r20
    255c:	5f 93       	push	r21
    255e:	6f 93       	push	r22
    2560:	7f 93       	push	r23
    2562:	8f 93       	push	r24
    2564:	9f 93       	push	r25
    2566:	af 93       	push	r26
    2568:	bf 93       	push	r27
    256a:	ef 93       	push	r30
    256c:	ff 93       	push	r31
    256e:	e0 91 8a 01 	lds	r30, 0x018A
    2572:	f0 91 8b 01 	lds	r31, 0x018B
    2576:	30 97       	sbiw	r30, 0x00	; 0
    2578:	09 f0       	breq	.+2      	; 0x257c <__vector_15+0x30>
    257a:	09 95       	icall
    257c:	ff 91       	pop	r31
    257e:	ef 91       	pop	r30
    2580:	bf 91       	pop	r27
    2582:	af 91       	pop	r26
    2584:	9f 91       	pop	r25
    2586:	8f 91       	pop	r24
    2588:	7f 91       	pop	r23
    258a:	6f 91       	pop	r22
    258c:	5f 91       	pop	r21
    258e:	4f 91       	pop	r20
    2590:	3f 91       	pop	r19
    2592:	2f 91       	pop	r18
    2594:	0f 90       	pop	r0
    2596:	0f be       	out	0x3f, r0	; 63
    2598:	0f 90       	pop	r0
    259a:	1f 90       	pop	r1
    259c:	18 95       	reti

0000259e <__vector_13>:
    259e:	1f 92       	push	r1
    25a0:	0f 92       	push	r0
    25a2:	0f b6       	in	r0, 0x3f	; 63
    25a4:	0f 92       	push	r0
    25a6:	11 24       	eor	r1, r1
    25a8:	2f 93       	push	r18
    25aa:	3f 93       	push	r19
    25ac:	4f 93       	push	r20
    25ae:	5f 93       	push	r21
    25b0:	6f 93       	push	r22
    25b2:	7f 93       	push	r23
    25b4:	8f 93       	push	r24
    25b6:	9f 93       	push	r25
    25b8:	af 93       	push	r26
    25ba:	bf 93       	push	r27
    25bc:	ef 93       	push	r30
    25be:	ff 93       	push	r31
    25c0:	e0 91 88 01 	lds	r30, 0x0188
    25c4:	f0 91 89 01 	lds	r31, 0x0189
    25c8:	30 97       	sbiw	r30, 0x00	; 0
    25ca:	09 f0       	breq	.+2      	; 0x25ce <__vector_13+0x30>
    25cc:	09 95       	icall
    25ce:	ff 91       	pop	r31
    25d0:	ef 91       	pop	r30
    25d2:	bf 91       	pop	r27
    25d4:	af 91       	pop	r26
    25d6:	9f 91       	pop	r25
    25d8:	8f 91       	pop	r24
    25da:	7f 91       	pop	r23
    25dc:	6f 91       	pop	r22
    25de:	5f 91       	pop	r21
    25e0:	4f 91       	pop	r20
    25e2:	3f 91       	pop	r19
    25e4:	2f 91       	pop	r18
    25e6:	0f 90       	pop	r0
    25e8:	0f be       	out	0x3f, r0	; 63
    25ea:	0f 90       	pop	r0
    25ec:	1f 90       	pop	r1
    25ee:	18 95       	reti

000025f0 <LCD_WriteData>:
    25f0:	ef 92       	push	r14
    25f2:	ff 92       	push	r15
    25f4:	1f 93       	push	r17
    25f6:	18 2f       	mov	r17, r24
    25f8:	81 e0       	ldi	r24, 0x01	; 1
    25fa:	61 e0       	ldi	r22, 0x01	; 1
    25fc:	0e 94 96 11 	call	0x232c	; 0x232c <DIO_WritePin>
    2600:	81 e1       	ldi	r24, 0x11	; 17
    2602:	60 e0       	ldi	r22, 0x00	; 0
    2604:	0e 94 96 11 	call	0x232c	; 0x232c <DIO_WritePin>
    2608:	61 2f       	mov	r22, r17
    260a:	62 95       	swap	r22
    260c:	61 70       	andi	r22, 0x01	; 1
    260e:	83 e0       	ldi	r24, 0x03	; 3
    2610:	0e 94 96 11 	call	0x232c	; 0x232c <DIO_WritePin>
    2614:	61 2f       	mov	r22, r17
    2616:	62 95       	swap	r22
    2618:	66 95       	lsr	r22
    261a:	61 70       	andi	r22, 0x01	; 1
    261c:	84 e0       	ldi	r24, 0x04	; 4
    261e:	0e 94 96 11 	call	0x232c	; 0x232c <DIO_WritePin>
    2622:	61 2f       	mov	r22, r17
    2624:	62 95       	swap	r22
    2626:	66 95       	lsr	r22
    2628:	66 95       	lsr	r22
    262a:	61 70       	andi	r22, 0x01	; 1
    262c:	85 e0       	ldi	r24, 0x05	; 5
    262e:	0e 94 96 11 	call	0x232c	; 0x232c <DIO_WritePin>
    2632:	61 2f       	mov	r22, r17
    2634:	66 1f       	adc	r22, r22
    2636:	66 27       	eor	r22, r22
    2638:	66 1f       	adc	r22, r22
    263a:	86 e0       	ldi	r24, 0x06	; 6
    263c:	0e 94 96 11 	call	0x232c	; 0x232c <DIO_WritePin>
    2640:	82 e0       	ldi	r24, 0x02	; 2
    2642:	61 e0       	ldi	r22, 0x01	; 1
    2644:	0e 94 96 11 	call	0x232c	; 0x232c <DIO_WritePin>
    2648:	80 ed       	ldi	r24, 0xD0	; 208
    264a:	e8 2e       	mov	r14, r24
    264c:	87 e0       	ldi	r24, 0x07	; 7
    264e:	f8 2e       	mov	r15, r24
    2650:	c7 01       	movw	r24, r14
    2652:	01 97       	sbiw	r24, 0x01	; 1
    2654:	f1 f7       	brne	.-4      	; 0x2652 <LCD_WriteData+0x62>
    2656:	82 e0       	ldi	r24, 0x02	; 2
    2658:	60 e0       	ldi	r22, 0x00	; 0
    265a:	0e 94 96 11 	call	0x232c	; 0x232c <DIO_WritePin>
    265e:	c7 01       	movw	r24, r14
    2660:	01 97       	sbiw	r24, 0x01	; 1
    2662:	f1 f7       	brne	.-4      	; 0x2660 <LCD_WriteData+0x70>
    2664:	61 2f       	mov	r22, r17
    2666:	61 70       	andi	r22, 0x01	; 1
    2668:	83 e0       	ldi	r24, 0x03	; 3
    266a:	0e 94 96 11 	call	0x232c	; 0x232c <DIO_WritePin>
    266e:	61 2f       	mov	r22, r17
    2670:	66 95       	lsr	r22
    2672:	61 70       	andi	r22, 0x01	; 1
    2674:	84 e0       	ldi	r24, 0x04	; 4
    2676:	0e 94 96 11 	call	0x232c	; 0x232c <DIO_WritePin>
    267a:	16 95       	lsr	r17
    267c:	16 95       	lsr	r17
    267e:	61 2f       	mov	r22, r17
    2680:	61 70       	andi	r22, 0x01	; 1
    2682:	85 e0       	ldi	r24, 0x05	; 5
    2684:	0e 94 96 11 	call	0x232c	; 0x232c <DIO_WritePin>
    2688:	16 95       	lsr	r17
    268a:	11 70       	andi	r17, 0x01	; 1
    268c:	86 e0       	ldi	r24, 0x06	; 6
    268e:	61 2f       	mov	r22, r17
    2690:	0e 94 96 11 	call	0x232c	; 0x232c <DIO_WritePin>
    2694:	82 e0       	ldi	r24, 0x02	; 2
    2696:	61 e0       	ldi	r22, 0x01	; 1
    2698:	0e 94 96 11 	call	0x232c	; 0x232c <DIO_WritePin>
    269c:	c7 01       	movw	r24, r14
    269e:	01 97       	sbiw	r24, 0x01	; 1
    26a0:	f1 f7       	brne	.-4      	; 0x269e <LCD_WriteData+0xae>
    26a2:	82 e0       	ldi	r24, 0x02	; 2
    26a4:	60 e0       	ldi	r22, 0x00	; 0
    26a6:	0e 94 96 11 	call	0x232c	; 0x232c <DIO_WritePin>
    26aa:	c7 01       	movw	r24, r14
    26ac:	01 97       	sbiw	r24, 0x01	; 1
    26ae:	f1 f7       	brne	.-4      	; 0x26ac <LCD_WriteData+0xbc>
    26b0:	1f 91       	pop	r17
    26b2:	ff 90       	pop	r15
    26b4:	ef 90       	pop	r14
    26b6:	08 95       	ret

000026b8 <LCD_WriteNumberInBinary2>:
    26b8:	ef 92       	push	r14
    26ba:	ff 92       	push	r15
    26bc:	1f 93       	push	r17
    26be:	cf 93       	push	r28
    26c0:	df 93       	push	r29
    26c2:	10 e0       	ldi	r17, 0x00	; 0
    26c4:	c7 e0       	ldi	r28, 0x07	; 7
    26c6:	d0 e0       	ldi	r29, 0x00	; 0
    26c8:	e8 2e       	mov	r14, r24
    26ca:	ff 24       	eor	r15, r15
    26cc:	c7 01       	movw	r24, r14
    26ce:	0c 2e       	mov	r0, r28
    26d0:	02 c0       	rjmp	.+4      	; 0x26d6 <LCD_WriteNumberInBinary2+0x1e>
    26d2:	95 95       	asr	r25
    26d4:	87 95       	ror	r24
    26d6:	0a 94       	dec	r0
    26d8:	e2 f7       	brpl	.-8      	; 0x26d2 <LCD_WriteNumberInBinary2+0x1a>
    26da:	80 ff       	sbrs	r24, 0
    26dc:	02 c0       	rjmp	.+4      	; 0x26e2 <LCD_WriteNumberInBinary2+0x2a>
    26de:	11 e0       	ldi	r17, 0x01	; 1
    26e0:	04 c0       	rjmp	.+8      	; 0x26ea <LCD_WriteNumberInBinary2+0x32>
    26e2:	11 30       	cpi	r17, 0x01	; 1
    26e4:	11 f0       	breq	.+4      	; 0x26ea <LCD_WriteNumberInBinary2+0x32>
    26e6:	10 e0       	ldi	r17, 0x00	; 0
    26e8:	04 c0       	rjmp	.+8      	; 0x26f2 <LCD_WriteNumberInBinary2+0x3a>
    26ea:	81 70       	andi	r24, 0x01	; 1
    26ec:	80 5d       	subi	r24, 0xD0	; 208
    26ee:	0e 94 f8 12 	call	0x25f0	; 0x25f0 <LCD_WriteData>
    26f2:	21 97       	sbiw	r28, 0x01	; 1
    26f4:	8f ef       	ldi	r24, 0xFF	; 255
    26f6:	cf 3f       	cpi	r28, 0xFF	; 255
    26f8:	d8 07       	cpc	r29, r24
    26fa:	41 f7       	brne	.-48     	; 0x26cc <LCD_WriteNumberInBinary2+0x14>
    26fc:	df 91       	pop	r29
    26fe:	cf 91       	pop	r28
    2700:	1f 91       	pop	r17
    2702:	ff 90       	pop	r15
    2704:	ef 90       	pop	r14
    2706:	08 95       	ret

00002708 <LCD_WriteNumberInBinary>:
    2708:	0f 93       	push	r16
    270a:	1f 93       	push	r17
    270c:	cf 93       	push	r28
    270e:	df 93       	push	r29
    2710:	c7 e0       	ldi	r28, 0x07	; 7
    2712:	d0 e0       	ldi	r29, 0x00	; 0
    2714:	08 2f       	mov	r16, r24
    2716:	10 e0       	ldi	r17, 0x00	; 0
    2718:	c8 01       	movw	r24, r16
    271a:	0c 2e       	mov	r0, r28
    271c:	02 c0       	rjmp	.+4      	; 0x2722 <LCD_WriteNumberInBinary+0x1a>
    271e:	95 95       	asr	r25
    2720:	87 95       	ror	r24
    2722:	0a 94       	dec	r0
    2724:	e2 f7       	brpl	.-8      	; 0x271e <LCD_WriteNumberInBinary+0x16>
    2726:	81 70       	andi	r24, 0x01	; 1
    2728:	80 5d       	subi	r24, 0xD0	; 208
    272a:	0e 94 f8 12 	call	0x25f0	; 0x25f0 <LCD_WriteData>
    272e:	21 97       	sbiw	r28, 0x01	; 1
    2730:	8f ef       	ldi	r24, 0xFF	; 255
    2732:	cf 3f       	cpi	r28, 0xFF	; 255
    2734:	d8 07       	cpc	r29, r24
    2736:	81 f7       	brne	.-32     	; 0x2718 <LCD_WriteNumberInBinary+0x10>
    2738:	df 91       	pop	r29
    273a:	cf 91       	pop	r28
    273c:	1f 91       	pop	r17
    273e:	0f 91       	pop	r16
    2740:	08 95       	ret

00002742 <LCD_WriteChar>:
    2742:	0e 94 f8 12 	call	0x25f0	; 0x25f0 <LCD_WriteData>
    2746:	08 95       	ret

00002748 <LCD_WriteNumber_4D>:
    2748:	0f 93       	push	r16
    274a:	1f 93       	push	r17
    274c:	8c 01       	movw	r16, r24
    274e:	60 e1       	ldi	r22, 0x10	; 16
    2750:	77 e2       	ldi	r23, 0x27	; 39
    2752:	0e 94 e3 21 	call	0x43c6	; 0x43c6 <__udivmodhi4>
    2756:	68 ee       	ldi	r22, 0xE8	; 232
    2758:	73 e0       	ldi	r23, 0x03	; 3
    275a:	0e 94 e3 21 	call	0x43c6	; 0x43c6 <__udivmodhi4>
    275e:	86 2f       	mov	r24, r22
    2760:	80 5d       	subi	r24, 0xD0	; 208
    2762:	0e 94 f8 12 	call	0x25f0	; 0x25f0 <LCD_WriteData>
    2766:	c8 01       	movw	r24, r16
    2768:	68 ee       	ldi	r22, 0xE8	; 232
    276a:	73 e0       	ldi	r23, 0x03	; 3
    276c:	0e 94 e3 21 	call	0x43c6	; 0x43c6 <__udivmodhi4>
    2770:	64 e6       	ldi	r22, 0x64	; 100
    2772:	70 e0       	ldi	r23, 0x00	; 0
    2774:	0e 94 e3 21 	call	0x43c6	; 0x43c6 <__udivmodhi4>
    2778:	86 2f       	mov	r24, r22
    277a:	80 5d       	subi	r24, 0xD0	; 208
    277c:	0e 94 f8 12 	call	0x25f0	; 0x25f0 <LCD_WriteData>
    2780:	c8 01       	movw	r24, r16
    2782:	64 e6       	ldi	r22, 0x64	; 100
    2784:	70 e0       	ldi	r23, 0x00	; 0
    2786:	0e 94 e3 21 	call	0x43c6	; 0x43c6 <__udivmodhi4>
    278a:	6a e0       	ldi	r22, 0x0A	; 10
    278c:	70 e0       	ldi	r23, 0x00	; 0
    278e:	0e 94 e3 21 	call	0x43c6	; 0x43c6 <__udivmodhi4>
    2792:	86 2f       	mov	r24, r22
    2794:	80 5d       	subi	r24, 0xD0	; 208
    2796:	0e 94 f8 12 	call	0x25f0	; 0x25f0 <LCD_WriteData>
    279a:	c8 01       	movw	r24, r16
    279c:	6a e0       	ldi	r22, 0x0A	; 10
    279e:	70 e0       	ldi	r23, 0x00	; 0
    27a0:	0e 94 e3 21 	call	0x43c6	; 0x43c6 <__udivmodhi4>
    27a4:	80 5d       	subi	r24, 0xD0	; 208
    27a6:	0e 94 f8 12 	call	0x25f0	; 0x25f0 <LCD_WriteData>
    27aa:	1f 91       	pop	r17
    27ac:	0f 91       	pop	r16
    27ae:	08 95       	ret

000027b0 <LCD_WriteNumber>:
    27b0:	2f 92       	push	r2
    27b2:	3f 92       	push	r3
    27b4:	4f 92       	push	r4
    27b6:	5f 92       	push	r5
    27b8:	6f 92       	push	r6
    27ba:	7f 92       	push	r7
    27bc:	8f 92       	push	r8
    27be:	9f 92       	push	r9
    27c0:	af 92       	push	r10
    27c2:	bf 92       	push	r11
    27c4:	cf 92       	push	r12
    27c6:	df 92       	push	r13
    27c8:	ef 92       	push	r14
    27ca:	ff 92       	push	r15
    27cc:	0f 93       	push	r16
    27ce:	1f 93       	push	r17
    27d0:	df 93       	push	r29
    27d2:	cf 93       	push	r28
    27d4:	cd b7       	in	r28, 0x3d	; 61
    27d6:	de b7       	in	r29, 0x3e	; 62
    27d8:	63 97       	sbiw	r28, 0x13	; 19
    27da:	0f b6       	in	r0, 0x3f	; 63
    27dc:	f8 94       	cli
    27de:	de bf       	out	0x3e, r29	; 62
    27e0:	0f be       	out	0x3f, r0	; 63
    27e2:	cd bf       	out	0x3d, r28	; 61
    27e4:	72 2e       	mov	r7, r18
    27e6:	63 2e       	mov	r6, r19
    27e8:	54 2e       	mov	r5, r20
    27ea:	45 2e       	mov	r4, r21
    27ec:	26 2e       	mov	r2, r22
    27ee:	87 2e       	mov	r8, r23
    27f0:	98 2e       	mov	r9, r24
    27f2:	39 2e       	mov	r3, r25
    27f4:	82 2f       	mov	r24, r18
    27f6:	83 2b       	or	r24, r19
    27f8:	84 2b       	or	r24, r20
    27fa:	85 2b       	or	r24, r21
    27fc:	86 2b       	or	r24, r22
    27fe:	87 2b       	or	r24, r23
    2800:	89 29       	or	r24, r9
    2802:	89 2b       	or	r24, r25
    2804:	21 f4       	brne	.+8      	; 0x280e <LCD_WriteNumber+0x5e>
    2806:	80 e3       	ldi	r24, 0x30	; 48
    2808:	0e 94 f8 12 	call	0x25f0	; 0x25f0 <LCD_WriteData>
    280c:	b3 c0       	rjmp	.+358    	; 0x2974 <LCD_WriteNumber+0x1c4>
    280e:	97 ff       	sbrs	r25, 7
    2810:	60 c0       	rjmp	.+192    	; 0x28d2 <LCD_WriteNumber+0x122>
    2812:	21 95       	neg	r18
    2814:	91 e0       	ldi	r25, 0x01	; 1
    2816:	12 16       	cp	r1, r18
    2818:	08 f0       	brcs	.+2      	; 0x281c <LCD_WriteNumber+0x6c>
    281a:	90 e0       	ldi	r25, 0x00	; 0
    281c:	36 2d       	mov	r19, r6
    281e:	31 95       	neg	r19
    2820:	51 e0       	ldi	r21, 0x01	; 1
    2822:	13 16       	cp	r1, r19
    2824:	08 f0       	brcs	.+2      	; 0x2828 <LCD_WriteNumber+0x78>
    2826:	50 e0       	ldi	r21, 0x00	; 0
    2828:	f3 2e       	mov	r15, r19
    282a:	f9 1a       	sub	r15, r25
    282c:	91 e0       	ldi	r25, 0x01	; 1
    282e:	3f 15       	cp	r19, r15
    2830:	08 f0       	brcs	.+2      	; 0x2834 <LCD_WriteNumber+0x84>
    2832:	90 e0       	ldi	r25, 0x00	; 0
    2834:	59 2b       	or	r21, r25
    2836:	45 2d       	mov	r20, r5
    2838:	41 95       	neg	r20
    283a:	61 e0       	ldi	r22, 0x01	; 1
    283c:	14 16       	cp	r1, r20
    283e:	08 f0       	brcs	.+2      	; 0x2842 <LCD_WriteNumber+0x92>
    2840:	60 e0       	ldi	r22, 0x00	; 0
    2842:	04 2f       	mov	r16, r20
    2844:	05 1b       	sub	r16, r21
    2846:	91 e0       	ldi	r25, 0x01	; 1
    2848:	40 17       	cp	r20, r16
    284a:	08 f0       	brcs	.+2      	; 0x284e <LCD_WriteNumber+0x9e>
    284c:	90 e0       	ldi	r25, 0x00	; 0
    284e:	69 2b       	or	r22, r25
    2850:	54 2d       	mov	r21, r4
    2852:	51 95       	neg	r21
    2854:	71 e0       	ldi	r23, 0x01	; 1
    2856:	15 16       	cp	r1, r21
    2858:	08 f0       	brcs	.+2      	; 0x285c <LCD_WriteNumber+0xac>
    285a:	70 e0       	ldi	r23, 0x00	; 0
    285c:	15 2f       	mov	r17, r21
    285e:	16 1b       	sub	r17, r22
    2860:	91 e0       	ldi	r25, 0x01	; 1
    2862:	51 17       	cp	r21, r17
    2864:	08 f0       	brcs	.+2      	; 0x2868 <LCD_WriteNumber+0xb8>
    2866:	90 e0       	ldi	r25, 0x00	; 0
    2868:	79 2b       	or	r23, r25
    286a:	62 2d       	mov	r22, r2
    286c:	61 95       	neg	r22
    286e:	e1 e0       	ldi	r30, 0x01	; 1
    2870:	16 16       	cp	r1, r22
    2872:	08 f0       	brcs	.+2      	; 0x2876 <LCD_WriteNumber+0xc6>
    2874:	e0 e0       	ldi	r30, 0x00	; 0
    2876:	b6 2f       	mov	r27, r22
    2878:	b7 1b       	sub	r27, r23
    287a:	91 e0       	ldi	r25, 0x01	; 1
    287c:	6b 17       	cp	r22, r27
    287e:	08 f0       	brcs	.+2      	; 0x2882 <LCD_WriteNumber+0xd2>
    2880:	90 e0       	ldi	r25, 0x00	; 0
    2882:	e9 2b       	or	r30, r25
    2884:	78 2d       	mov	r23, r8
    2886:	71 95       	neg	r23
    2888:	f1 e0       	ldi	r31, 0x01	; 1
    288a:	17 16       	cp	r1, r23
    288c:	08 f0       	brcs	.+2      	; 0x2890 <LCD_WriteNumber+0xe0>
    288e:	f0 e0       	ldi	r31, 0x00	; 0
    2890:	a7 2f       	mov	r26, r23
    2892:	ae 1b       	sub	r26, r30
    2894:	91 e0       	ldi	r25, 0x01	; 1
    2896:	7a 17       	cp	r23, r26
    2898:	08 f0       	brcs	.+2      	; 0x289c <LCD_WriteNumber+0xec>
    289a:	90 e0       	ldi	r25, 0x00	; 0
    289c:	f9 2b       	or	r31, r25
    289e:	89 2d       	mov	r24, r9
    28a0:	81 95       	neg	r24
    28a2:	e1 e0       	ldi	r30, 0x01	; 1
    28a4:	18 16       	cp	r1, r24
    28a6:	08 f0       	brcs	.+2      	; 0x28aa <LCD_WriteNumber+0xfa>
    28a8:	e0 e0       	ldi	r30, 0x00	; 0
    28aa:	98 2f       	mov	r25, r24
    28ac:	9f 1b       	sub	r25, r31
    28ae:	f9 2f       	mov	r31, r25
    28b0:	91 e0       	ldi	r25, 0x01	; 1
    28b2:	8f 17       	cp	r24, r31
    28b4:	08 f0       	brcs	.+2      	; 0x28b8 <LCD_WriteNumber+0x108>
    28b6:	90 e0       	ldi	r25, 0x00	; 0
    28b8:	e9 2b       	or	r30, r25
    28ba:	31 94       	neg	r3
    28bc:	72 2e       	mov	r7, r18
    28be:	6f 2c       	mov	r6, r15
    28c0:	50 2e       	mov	r5, r16
    28c2:	41 2e       	mov	r4, r17
    28c4:	2b 2e       	mov	r2, r27
    28c6:	8a 2e       	mov	r8, r26
    28c8:	9f 2e       	mov	r9, r31
    28ca:	3e 1a       	sub	r3, r30
    28cc:	8d e2       	ldi	r24, 0x2D	; 45
    28ce:	0e 94 f8 12 	call	0x25f0	; 0x25f0 <LCD_WriteData>
    28d2:	fe 01       	movw	r30, r28
    28d4:	31 96       	adiw	r30, 0x01	; 1
    28d6:	80 e1       	ldi	r24, 0x10	; 16
    28d8:	df 01       	movw	r26, r30
    28da:	1d 92       	st	X+, r1
    28dc:	8a 95       	dec	r24
    28de:	e9 f7       	brne	.-6      	; 0x28da <LCD_WriteNumber+0x12a>
    28e0:	19 8a       	std	Y+17, r1	; 0x11
    28e2:	e1 e0       	ldi	r30, 0x01	; 1
    28e4:	f0 e0       	ldi	r31, 0x00	; 0
    28e6:	ec 0f       	add	r30, r28
    28e8:	fd 1f       	adc	r31, r29
    28ea:	29 89       	ldd	r18, Y+17	; 0x11
    28ec:	e2 0f       	add	r30, r18
    28ee:	f1 1d       	adc	r31, r1
    28f0:	fb 8b       	std	Y+19, r31	; 0x13
    28f2:	ea 8b       	std	Y+18, r30	; 0x12
    28f4:	27 2d       	mov	r18, r7
    28f6:	36 2d       	mov	r19, r6
    28f8:	45 2d       	mov	r20, r5
    28fa:	54 2d       	mov	r21, r4
    28fc:	62 2d       	mov	r22, r2
    28fe:	78 2d       	mov	r23, r8
    2900:	89 2d       	mov	r24, r9
    2902:	93 2d       	mov	r25, r3
    2904:	ea e0       	ldi	r30, 0x0A	; 10
    2906:	ae 2e       	mov	r10, r30
    2908:	bb 24       	eor	r11, r11
    290a:	cc 24       	eor	r12, r12
    290c:	dd 24       	eor	r13, r13
    290e:	ee 24       	eor	r14, r14
    2910:	ff 24       	eor	r15, r15
    2912:	00 e0       	ldi	r16, 0x00	; 0
    2914:	10 e0       	ldi	r17, 0x00	; 0
    2916:	0e 94 71 08 	call	0x10e2	; 0x10e2 <__moddi3>
    291a:	20 5d       	subi	r18, 0xD0	; 208
    291c:	aa 89       	ldd	r26, Y+18	; 0x12
    291e:	bb 89       	ldd	r27, Y+19	; 0x13
    2920:	2c 93       	st	X, r18
    2922:	b9 89       	ldd	r27, Y+17	; 0x11
    2924:	bf 5f       	subi	r27, 0xFF	; 255
    2926:	b9 8b       	std	Y+17, r27	; 0x11
    2928:	27 2d       	mov	r18, r7
    292a:	36 2d       	mov	r19, r6
    292c:	45 2d       	mov	r20, r5
    292e:	54 2d       	mov	r21, r4
    2930:	62 2d       	mov	r22, r2
    2932:	78 2d       	mov	r23, r8
    2934:	89 2d       	mov	r24, r9
    2936:	93 2d       	mov	r25, r3
    2938:	0e 94 49 00 	call	0x92	; 0x92 <__divdi3>
    293c:	72 2e       	mov	r7, r18
    293e:	63 2e       	mov	r6, r19
    2940:	54 2e       	mov	r5, r20
    2942:	45 2e       	mov	r4, r21
    2944:	26 2e       	mov	r2, r22
    2946:	87 2e       	mov	r8, r23
    2948:	98 2e       	mov	r9, r24
    294a:	39 2e       	mov	r3, r25
    294c:	82 2f       	mov	r24, r18
    294e:	86 29       	or	r24, r6
    2950:	85 29       	or	r24, r5
    2952:	84 29       	or	r24, r4
    2954:	82 29       	or	r24, r2
    2956:	88 29       	or	r24, r8
    2958:	89 29       	or	r24, r9
    295a:	83 29       	or	r24, r3
    295c:	11 f6       	brne	.-124    	; 0x28e2 <LCD_WriteNumber+0x132>
    295e:	19 89       	ldd	r17, Y+17	; 0x11
    2960:	07 c0       	rjmp	.+14     	; 0x2970 <LCD_WriteNumber+0x1c0>
    2962:	fe 01       	movw	r30, r28
    2964:	e1 0f       	add	r30, r17
    2966:	f1 1d       	adc	r31, r1
    2968:	80 81       	ld	r24, Z
    296a:	0e 94 f8 12 	call	0x25f0	; 0x25f0 <LCD_WriteData>
    296e:	11 50       	subi	r17, 0x01	; 1
    2970:	11 23       	and	r17, r17
    2972:	b9 f7       	brne	.-18     	; 0x2962 <LCD_WriteNumber+0x1b2>
    2974:	63 96       	adiw	r28, 0x13	; 19
    2976:	0f b6       	in	r0, 0x3f	; 63
    2978:	f8 94       	cli
    297a:	de bf       	out	0x3e, r29	; 62
    297c:	0f be       	out	0x3f, r0	; 63
    297e:	cd bf       	out	0x3d, r28	; 61
    2980:	cf 91       	pop	r28
    2982:	df 91       	pop	r29
    2984:	1f 91       	pop	r17
    2986:	0f 91       	pop	r16
    2988:	ff 90       	pop	r15
    298a:	ef 90       	pop	r14
    298c:	df 90       	pop	r13
    298e:	cf 90       	pop	r12
    2990:	bf 90       	pop	r11
    2992:	af 90       	pop	r10
    2994:	9f 90       	pop	r9
    2996:	8f 90       	pop	r8
    2998:	7f 90       	pop	r7
    299a:	6f 90       	pop	r6
    299c:	5f 90       	pop	r5
    299e:	4f 90       	pop	r4
    29a0:	3f 90       	pop	r3
    29a2:	2f 90       	pop	r2
    29a4:	08 95       	ret

000029a6 <LCD_WriteString>:
    29a6:	1f 93       	push	r17
    29a8:	cf 93       	push	r28
    29aa:	df 93       	push	r29
    29ac:	ec 01       	movw	r28, r24
    29ae:	10 e0       	ldi	r17, 0x00	; 0
    29b0:	03 c0       	rjmp	.+6      	; 0x29b8 <LCD_WriteString+0x12>
    29b2:	0e 94 f8 12 	call	0x25f0	; 0x25f0 <LCD_WriteData>
    29b6:	1f 5f       	subi	r17, 0xFF	; 255
    29b8:	fe 01       	movw	r30, r28
    29ba:	e1 0f       	add	r30, r17
    29bc:	f1 1d       	adc	r31, r1
    29be:	80 81       	ld	r24, Z
    29c0:	88 23       	and	r24, r24
    29c2:	b9 f7       	brne	.-18     	; 0x29b2 <LCD_WriteString+0xc>
    29c4:	df 91       	pop	r29
    29c6:	cf 91       	pop	r28
    29c8:	1f 91       	pop	r17
    29ca:	08 95       	ret

000029cc <LCD_WriteCommand>:
    29cc:	ef 92       	push	r14
    29ce:	ff 92       	push	r15
    29d0:	1f 93       	push	r17
    29d2:	18 2f       	mov	r17, r24
    29d4:	81 e0       	ldi	r24, 0x01	; 1
    29d6:	60 e0       	ldi	r22, 0x00	; 0
    29d8:	0e 94 96 11 	call	0x232c	; 0x232c <DIO_WritePin>
    29dc:	81 e1       	ldi	r24, 0x11	; 17
    29de:	60 e0       	ldi	r22, 0x00	; 0
    29e0:	0e 94 96 11 	call	0x232c	; 0x232c <DIO_WritePin>
    29e4:	61 2f       	mov	r22, r17
    29e6:	62 95       	swap	r22
    29e8:	61 70       	andi	r22, 0x01	; 1
    29ea:	83 e0       	ldi	r24, 0x03	; 3
    29ec:	0e 94 96 11 	call	0x232c	; 0x232c <DIO_WritePin>
    29f0:	61 2f       	mov	r22, r17
    29f2:	62 95       	swap	r22
    29f4:	66 95       	lsr	r22
    29f6:	61 70       	andi	r22, 0x01	; 1
    29f8:	84 e0       	ldi	r24, 0x04	; 4
    29fa:	0e 94 96 11 	call	0x232c	; 0x232c <DIO_WritePin>
    29fe:	61 2f       	mov	r22, r17
    2a00:	62 95       	swap	r22
    2a02:	66 95       	lsr	r22
    2a04:	66 95       	lsr	r22
    2a06:	61 70       	andi	r22, 0x01	; 1
    2a08:	85 e0       	ldi	r24, 0x05	; 5
    2a0a:	0e 94 96 11 	call	0x232c	; 0x232c <DIO_WritePin>
    2a0e:	61 2f       	mov	r22, r17
    2a10:	66 1f       	adc	r22, r22
    2a12:	66 27       	eor	r22, r22
    2a14:	66 1f       	adc	r22, r22
    2a16:	86 e0       	ldi	r24, 0x06	; 6
    2a18:	0e 94 96 11 	call	0x232c	; 0x232c <DIO_WritePin>
    2a1c:	82 e0       	ldi	r24, 0x02	; 2
    2a1e:	61 e0       	ldi	r22, 0x01	; 1
    2a20:	0e 94 96 11 	call	0x232c	; 0x232c <DIO_WritePin>
    2a24:	f0 ed       	ldi	r31, 0xD0	; 208
    2a26:	ef 2e       	mov	r14, r31
    2a28:	f7 e0       	ldi	r31, 0x07	; 7
    2a2a:	ff 2e       	mov	r15, r31
    2a2c:	c7 01       	movw	r24, r14
    2a2e:	01 97       	sbiw	r24, 0x01	; 1
    2a30:	f1 f7       	brne	.-4      	; 0x2a2e <LCD_WriteCommand+0x62>
    2a32:	82 e0       	ldi	r24, 0x02	; 2
    2a34:	60 e0       	ldi	r22, 0x00	; 0
    2a36:	0e 94 96 11 	call	0x232c	; 0x232c <DIO_WritePin>
    2a3a:	c7 01       	movw	r24, r14
    2a3c:	01 97       	sbiw	r24, 0x01	; 1
    2a3e:	f1 f7       	brne	.-4      	; 0x2a3c <LCD_WriteCommand+0x70>
    2a40:	61 2f       	mov	r22, r17
    2a42:	61 70       	andi	r22, 0x01	; 1
    2a44:	83 e0       	ldi	r24, 0x03	; 3
    2a46:	0e 94 96 11 	call	0x232c	; 0x232c <DIO_WritePin>
    2a4a:	61 2f       	mov	r22, r17
    2a4c:	66 95       	lsr	r22
    2a4e:	61 70       	andi	r22, 0x01	; 1
    2a50:	84 e0       	ldi	r24, 0x04	; 4
    2a52:	0e 94 96 11 	call	0x232c	; 0x232c <DIO_WritePin>
    2a56:	16 95       	lsr	r17
    2a58:	16 95       	lsr	r17
    2a5a:	61 2f       	mov	r22, r17
    2a5c:	61 70       	andi	r22, 0x01	; 1
    2a5e:	85 e0       	ldi	r24, 0x05	; 5
    2a60:	0e 94 96 11 	call	0x232c	; 0x232c <DIO_WritePin>
    2a64:	16 95       	lsr	r17
    2a66:	11 70       	andi	r17, 0x01	; 1
    2a68:	86 e0       	ldi	r24, 0x06	; 6
    2a6a:	61 2f       	mov	r22, r17
    2a6c:	0e 94 96 11 	call	0x232c	; 0x232c <DIO_WritePin>
    2a70:	82 e0       	ldi	r24, 0x02	; 2
    2a72:	61 e0       	ldi	r22, 0x01	; 1
    2a74:	0e 94 96 11 	call	0x232c	; 0x232c <DIO_WritePin>
    2a78:	c7 01       	movw	r24, r14
    2a7a:	01 97       	sbiw	r24, 0x01	; 1
    2a7c:	f1 f7       	brne	.-4      	; 0x2a7a <LCD_WriteCommand+0xae>
    2a7e:	82 e0       	ldi	r24, 0x02	; 2
    2a80:	60 e0       	ldi	r22, 0x00	; 0
    2a82:	0e 94 96 11 	call	0x232c	; 0x232c <DIO_WritePin>
    2a86:	c7 01       	movw	r24, r14
    2a88:	01 97       	sbiw	r24, 0x01	; 1
    2a8a:	f1 f7       	brne	.-4      	; 0x2a88 <LCD_WriteCommand+0xbc>
    2a8c:	1f 91       	pop	r17
    2a8e:	ff 90       	pop	r15
    2a90:	ef 90       	pop	r14
    2a92:	08 95       	ret

00002a94 <LCD_CreateCharacter>:
    2a94:	0f 93       	push	r16
    2a96:	1f 93       	push	r17
    2a98:	cf 93       	push	r28
    2a9a:	df 93       	push	r29
    2a9c:	8c 01       	movw	r16, r24
    2a9e:	86 2f       	mov	r24, r22
    2aa0:	88 0f       	add	r24, r24
    2aa2:	88 0f       	add	r24, r24
    2aa4:	88 0f       	add	r24, r24
    2aa6:	80 5c       	subi	r24, 0xC0	; 192
    2aa8:	0e 94 e6 14 	call	0x29cc	; 0x29cc <LCD_WriteCommand>
    2aac:	c0 e0       	ldi	r28, 0x00	; 0
    2aae:	d0 e0       	ldi	r29, 0x00	; 0
    2ab0:	f8 01       	movw	r30, r16
    2ab2:	ec 0f       	add	r30, r28
    2ab4:	fd 1f       	adc	r31, r29
    2ab6:	80 81       	ld	r24, Z
    2ab8:	0e 94 f8 12 	call	0x25f0	; 0x25f0 <LCD_WriteData>
    2abc:	21 96       	adiw	r28, 0x01	; 1
    2abe:	c8 30       	cpi	r28, 0x08	; 8
    2ac0:	d1 05       	cpc	r29, r1
    2ac2:	b1 f7       	brne	.-20     	; 0x2ab0 <LCD_CreateCharacter+0x1c>
    2ac4:	df 91       	pop	r29
    2ac6:	cf 91       	pop	r28
    2ac8:	1f 91       	pop	r17
    2aca:	0f 91       	pop	r16
    2acc:	08 95       	ret

00002ace <Create_Character>:
    2ace:	0f 93       	push	r16
    2ad0:	1f 93       	push	r17
    2ad2:	cf 93       	push	r28
    2ad4:	df 93       	push	r29
    2ad6:	8c 01       	movw	r16, r24
    2ad8:	86 2f       	mov	r24, r22
    2ada:	88 0f       	add	r24, r24
    2adc:	88 0f       	add	r24, r24
    2ade:	88 0f       	add	r24, r24
    2ae0:	80 5c       	subi	r24, 0xC0	; 192
    2ae2:	0e 94 e6 14 	call	0x29cc	; 0x29cc <LCD_WriteCommand>
    2ae6:	c0 e0       	ldi	r28, 0x00	; 0
    2ae8:	d0 e0       	ldi	r29, 0x00	; 0
    2aea:	f8 01       	movw	r30, r16
    2aec:	ec 0f       	add	r30, r28
    2aee:	fd 1f       	adc	r31, r29
    2af0:	80 81       	ld	r24, Z
    2af2:	0e 94 f8 12 	call	0x25f0	; 0x25f0 <LCD_WriteData>
    2af6:	21 96       	adiw	r28, 0x01	; 1
    2af8:	c8 30       	cpi	r28, 0x08	; 8
    2afa:	d1 05       	cpc	r29, r1
    2afc:	b1 f7       	brne	.-20     	; 0x2aea <Create_Character+0x1c>
    2afe:	df 91       	pop	r29
    2b00:	cf 91       	pop	r28
    2b02:	1f 91       	pop	r17
    2b04:	0f 91       	pop	r16
    2b06:	08 95       	ret

00002b08 <LCD_GoTo>:
    2b08:	88 23       	and	r24, r24
    2b0a:	29 f4       	brne	.+10     	; 0x2b16 <LCD_GoTo+0xe>
    2b0c:	86 2f       	mov	r24, r22
    2b0e:	80 58       	subi	r24, 0x80	; 128
    2b10:	0e 94 e6 14 	call	0x29cc	; 0x29cc <LCD_WriteCommand>
    2b14:	08 95       	ret
    2b16:	81 30       	cpi	r24, 0x01	; 1
    2b18:	21 f4       	brne	.+8      	; 0x2b22 <LCD_GoTo+0x1a>
    2b1a:	86 2f       	mov	r24, r22
    2b1c:	80 54       	subi	r24, 0x40	; 64
    2b1e:	0e 94 e6 14 	call	0x29cc	; 0x29cc <LCD_WriteCommand>
    2b22:	08 95       	ret

00002b24 <LCD_WriteNumber_GoTo>:
    2b24:	af 92       	push	r10
    2b26:	bf 92       	push	r11
    2b28:	cf 92       	push	r12
    2b2a:	df 92       	push	r13
    2b2c:	ef 92       	push	r14
    2b2e:	ff 92       	push	r15
    2b30:	0f 93       	push	r16
    2b32:	1f 93       	push	r17
    2b34:	d2 2e       	mov	r13, r18
    2b36:	c3 2e       	mov	r12, r19
    2b38:	b4 2e       	mov	r11, r20
    2b3a:	a5 2e       	mov	r10, r21
    2b3c:	0e 94 84 15 	call	0x2b08	; 0x2b08 <LCD_GoTo>
    2b40:	97 01       	movw	r18, r14
    2b42:	a8 01       	movw	r20, r16
    2b44:	6d 2d       	mov	r22, r13
    2b46:	7c 2d       	mov	r23, r12
    2b48:	8b 2d       	mov	r24, r11
    2b4a:	9a 2d       	mov	r25, r10
    2b4c:	0e 94 d8 13 	call	0x27b0	; 0x27b0 <LCD_WriteNumber>
    2b50:	1f 91       	pop	r17
    2b52:	0f 91       	pop	r16
    2b54:	ff 90       	pop	r15
    2b56:	ef 90       	pop	r14
    2b58:	df 90       	pop	r13
    2b5a:	cf 90       	pop	r12
    2b5c:	bf 90       	pop	r11
    2b5e:	af 90       	pop	r10
    2b60:	08 95       	ret

00002b62 <LCD_Clear>:
    2b62:	81 e0       	ldi	r24, 0x01	; 1
    2b64:	0e 94 e6 14 	call	0x29cc	; 0x29cc <LCD_WriteCommand>
    2b68:	08 95       	ret

00002b6a <LCD_Init>:
    2b6a:	0f 93       	push	r16
    2b6c:	1f 93       	push	r17
    2b6e:	84 ef       	ldi	r24, 0xF4	; 244
    2b70:	91 e0       	ldi	r25, 0x01	; 1
    2b72:	28 ec       	ldi	r18, 0xC8	; 200
    2b74:	30 e0       	ldi	r19, 0x00	; 0
    2b76:	f9 01       	movw	r30, r18
    2b78:	31 97       	sbiw	r30, 0x01	; 1
    2b7a:	f1 f7       	brne	.-4      	; 0x2b78 <LCD_Init+0xe>
    2b7c:	01 97       	sbiw	r24, 0x01	; 1
    2b7e:	d9 f7       	brne	.-10     	; 0x2b76 <LCD_Init+0xc>
    2b80:	82 e0       	ldi	r24, 0x02	; 2
    2b82:	0e 94 e6 14 	call	0x29cc	; 0x29cc <LCD_WriteCommand>
    2b86:	00 ed       	ldi	r16, 0xD0	; 208
    2b88:	17 e0       	ldi	r17, 0x07	; 7
    2b8a:	c8 01       	movw	r24, r16
    2b8c:	01 97       	sbiw	r24, 0x01	; 1
    2b8e:	f1 f7       	brne	.-4      	; 0x2b8c <LCD_Init+0x22>
    2b90:	88 e2       	ldi	r24, 0x28	; 40
    2b92:	0e 94 e6 14 	call	0x29cc	; 0x29cc <LCD_WriteCommand>
    2b96:	c8 01       	movw	r24, r16
    2b98:	01 97       	sbiw	r24, 0x01	; 1
    2b9a:	f1 f7       	brne	.-4      	; 0x2b98 <LCD_Init+0x2e>
    2b9c:	8c e0       	ldi	r24, 0x0C	; 12
    2b9e:	0e 94 e6 14 	call	0x29cc	; 0x29cc <LCD_WriteCommand>
    2ba2:	c8 01       	movw	r24, r16
    2ba4:	01 97       	sbiw	r24, 0x01	; 1
    2ba6:	f1 f7       	brne	.-4      	; 0x2ba4 <LCD_Init+0x3a>
    2ba8:	81 e0       	ldi	r24, 0x01	; 1
    2baa:	0e 94 e6 14 	call	0x29cc	; 0x29cc <LCD_WriteCommand>
    2bae:	80 ea       	ldi	r24, 0xA0	; 160
    2bb0:	9f e0       	ldi	r25, 0x0F	; 15
    2bb2:	01 97       	sbiw	r24, 0x01	; 1
    2bb4:	f1 f7       	brne	.-4      	; 0x2bb2 <LCD_Init+0x48>
    2bb6:	86 e0       	ldi	r24, 0x06	; 6
    2bb8:	0e 94 e6 14 	call	0x29cc	; 0x29cc <LCD_WriteCommand>
    2bbc:	c8 01       	movw	r24, r16
    2bbe:	01 97       	sbiw	r24, 0x01	; 1
    2bc0:	f1 f7       	brne	.-4      	; 0x2bbe <LCD_Init+0x54>
    2bc2:	1f 91       	pop	r17
    2bc4:	0f 91       	pop	r16
    2bc6:	08 95       	ret

00002bc8 <xCoRoutineRemoveFromEventList>:
    2bc8:	ef 92       	push	r14
    2bca:	ff 92       	push	r15
    2bcc:	0f 93       	push	r16
    2bce:	1f 93       	push	r17
    2bd0:	fc 01       	movw	r30, r24
    2bd2:	05 80       	ldd	r0, Z+5	; 0x05
    2bd4:	f6 81       	ldd	r31, Z+6	; 0x06
    2bd6:	e0 2d       	mov	r30, r0
    2bd8:	e6 80       	ldd	r14, Z+6	; 0x06
    2bda:	f7 80       	ldd	r15, Z+7	; 0x07
    2bdc:	87 01       	movw	r16, r14
    2bde:	04 5f       	subi	r16, 0xF4	; 244
    2be0:	1f 4f       	sbci	r17, 0xFF	; 255
    2be2:	c8 01       	movw	r24, r16
    2be4:	0e 94 4b 18 	call	0x3096	; 0x3096 <vListRemove>
    2be8:	8d eb       	ldi	r24, 0xBD	; 189
    2bea:	91 e0       	ldi	r25, 0x01	; 1
    2bec:	b8 01       	movw	r22, r16
    2bee:	0e 94 ed 17 	call	0x2fda	; 0x2fda <vListInsertEnd>
    2bf2:	20 e0       	ldi	r18, 0x00	; 0
    2bf4:	e0 91 8c 01 	lds	r30, 0x018C
    2bf8:	f0 91 8d 01 	lds	r31, 0x018D
    2bfc:	d7 01       	movw	r26, r14
    2bfe:	56 96       	adiw	r26, 0x16	; 22
    2c00:	9c 91       	ld	r25, X
    2c02:	86 89       	ldd	r24, Z+22	; 0x16
    2c04:	98 17       	cp	r25, r24
    2c06:	08 f0       	brcs	.+2      	; 0x2c0a <xCoRoutineRemoveFromEventList+0x42>
    2c08:	21 e0       	ldi	r18, 0x01	; 1
    2c0a:	82 2f       	mov	r24, r18
    2c0c:	1f 91       	pop	r17
    2c0e:	0f 91       	pop	r16
    2c10:	ff 90       	pop	r15
    2c12:	ef 90       	pop	r14
    2c14:	08 95       	ret

00002c16 <vCoRoutineSchedule>:
    2c16:	ff 92       	push	r15
    2c18:	0f 93       	push	r16
    2c1a:	1f 93       	push	r17
    2c1c:	cf 93       	push	r28
    2c1e:	df 93       	push	r29
    2c20:	99 e0       	ldi	r25, 0x09	; 9
    2c22:	f9 2e       	mov	r15, r25
    2c24:	21 c0       	rjmp	.+66     	; 0x2c68 <vCoRoutineSchedule+0x52>
    2c26:	f8 94       	cli
    2c28:	e0 91 c2 01 	lds	r30, 0x01C2
    2c2c:	f0 91 c3 01 	lds	r31, 0x01C3
    2c30:	06 81       	ldd	r16, Z+6	; 0x06
    2c32:	17 81       	ldd	r17, Z+7	; 0x07
    2c34:	c8 01       	movw	r24, r16
    2c36:	0c 96       	adiw	r24, 0x0c	; 12
    2c38:	0e 94 4b 18 	call	0x3096	; 0x3096 <vListRemove>
    2c3c:	78 94       	sei
    2c3e:	e8 01       	movw	r28, r16
    2c40:	22 96       	adiw	r28, 0x02	; 2
    2c42:	ce 01       	movw	r24, r28
    2c44:	0e 94 4b 18 	call	0x3096	; 0x3096 <vListRemove>
    2c48:	f8 01       	movw	r30, r16
    2c4a:	96 89       	ldd	r25, Z+22	; 0x16
    2c4c:	80 91 8e 01 	lds	r24, 0x018E
    2c50:	89 17       	cp	r24, r25
    2c52:	10 f4       	brcc	.+4      	; 0x2c58 <vCoRoutineSchedule+0x42>
    2c54:	90 93 8e 01 	sts	0x018E, r25
    2c58:	9f 9d       	mul	r25, r15
    2c5a:	c0 01       	movw	r24, r0
    2c5c:	11 24       	eor	r1, r1
    2c5e:	8b 56       	subi	r24, 0x6B	; 107
    2c60:	9e 4f       	sbci	r25, 0xFE	; 254
    2c62:	be 01       	movw	r22, r28
    2c64:	0e 94 ed 17 	call	0x2fda	; 0x2fda <vListInsertEnd>
    2c68:	80 91 bd 01 	lds	r24, 0x01BD
    2c6c:	88 23       	and	r24, r24
    2c6e:	d9 f6       	brne	.-74     	; 0x2c26 <vCoRoutineSchedule+0x10>
    2c70:	0e 94 9b 1c 	call	0x3936	; 0x3936 <xTaskGetTickCount>
    2c74:	20 91 8f 01 	lds	r18, 0x018F
    2c78:	30 91 90 01 	lds	r19, 0x0190
    2c7c:	82 1b       	sub	r24, r18
    2c7e:	93 0b       	sbc	r25, r19
    2c80:	90 93 92 01 	sts	0x0192, r25
    2c84:	80 93 91 01 	sts	0x0191, r24
    2c88:	89 e0       	ldi	r24, 0x09	; 9
    2c8a:	f8 2e       	mov	r15, r24
    2c8c:	53 c0       	rjmp	.+166    	; 0x2d34 <vCoRoutineSchedule+0x11e>
    2c8e:	01 96       	adiw	r24, 0x01	; 1
    2c90:	90 93 94 01 	sts	0x0194, r25
    2c94:	80 93 93 01 	sts	0x0193, r24
    2c98:	21 50       	subi	r18, 0x01	; 1
    2c9a:	30 40       	sbci	r19, 0x00	; 0
    2c9c:	30 93 92 01 	sts	0x0192, r19
    2ca0:	20 93 91 01 	sts	0x0191, r18
    2ca4:	89 2b       	or	r24, r25
    2ca6:	09 f0       	breq	.+2      	; 0x2caa <vCoRoutineSchedule+0x94>
    2ca8:	3e c0       	rjmp	.+124    	; 0x2d26 <vCoRoutineSchedule+0x110>
    2caa:	20 91 b9 01 	lds	r18, 0x01B9
    2cae:	30 91 ba 01 	lds	r19, 0x01BA
    2cb2:	80 91 bb 01 	lds	r24, 0x01BB
    2cb6:	90 91 bc 01 	lds	r25, 0x01BC
    2cba:	90 93 ba 01 	sts	0x01BA, r25
    2cbe:	80 93 b9 01 	sts	0x01B9, r24
    2cc2:	30 93 bc 01 	sts	0x01BC, r19
    2cc6:	20 93 bb 01 	sts	0x01BB, r18
    2cca:	2d c0       	rjmp	.+90     	; 0x2d26 <vCoRoutineSchedule+0x110>
    2ccc:	05 80       	ldd	r0, Z+5	; 0x05
    2cce:	f6 81       	ldd	r31, Z+6	; 0x06
    2cd0:	e0 2d       	mov	r30, r0
    2cd2:	c6 81       	ldd	r28, Z+6	; 0x06
    2cd4:	d7 81       	ldd	r29, Z+7	; 0x07
    2cd6:	20 91 93 01 	lds	r18, 0x0193
    2cda:	30 91 94 01 	lds	r19, 0x0194
    2cde:	8a 81       	ldd	r24, Y+2	; 0x02
    2ce0:	9b 81       	ldd	r25, Y+3	; 0x03
    2ce2:	28 17       	cp	r18, r24
    2ce4:	39 07       	cpc	r19, r25
    2ce6:	30 f1       	brcs	.+76     	; 0x2d34 <vCoRoutineSchedule+0x11e>
    2ce8:	f8 94       	cli
    2cea:	8e 01       	movw	r16, r28
    2cec:	0e 5f       	subi	r16, 0xFE	; 254
    2cee:	1f 4f       	sbci	r17, 0xFF	; 255
    2cf0:	c8 01       	movw	r24, r16
    2cf2:	0e 94 4b 18 	call	0x3096	; 0x3096 <vListRemove>
    2cf6:	8c 89       	ldd	r24, Y+20	; 0x14
    2cf8:	9d 89       	ldd	r25, Y+21	; 0x15
    2cfa:	89 2b       	or	r24, r25
    2cfc:	21 f0       	breq	.+8      	; 0x2d06 <vCoRoutineSchedule+0xf0>
    2cfe:	ce 01       	movw	r24, r28
    2d00:	0c 96       	adiw	r24, 0x0c	; 12
    2d02:	0e 94 4b 18 	call	0x3096	; 0x3096 <vListRemove>
    2d06:	78 94       	sei
    2d08:	9e 89       	ldd	r25, Y+22	; 0x16
    2d0a:	80 91 8e 01 	lds	r24, 0x018E
    2d0e:	89 17       	cp	r24, r25
    2d10:	10 f4       	brcc	.+4      	; 0x2d16 <vCoRoutineSchedule+0x100>
    2d12:	90 93 8e 01 	sts	0x018E, r25
    2d16:	9f 9d       	mul	r25, r15
    2d18:	c0 01       	movw	r24, r0
    2d1a:	11 24       	eor	r1, r1
    2d1c:	8b 56       	subi	r24, 0x6B	; 107
    2d1e:	9e 4f       	sbci	r25, 0xFE	; 254
    2d20:	b8 01       	movw	r22, r16
    2d22:	0e 94 ed 17 	call	0x2fda	; 0x2fda <vListInsertEnd>
    2d26:	e0 91 b9 01 	lds	r30, 0x01B9
    2d2a:	f0 91 ba 01 	lds	r31, 0x01BA
    2d2e:	80 81       	ld	r24, Z
    2d30:	88 23       	and	r24, r24
    2d32:	61 f6       	brne	.-104    	; 0x2ccc <vCoRoutineSchedule+0xb6>
    2d34:	20 91 91 01 	lds	r18, 0x0191
    2d38:	30 91 92 01 	lds	r19, 0x0192
    2d3c:	80 91 93 01 	lds	r24, 0x0193
    2d40:	90 91 94 01 	lds	r25, 0x0194
    2d44:	21 15       	cp	r18, r1
    2d46:	31 05       	cpc	r19, r1
    2d48:	09 f0       	breq	.+2      	; 0x2d4c <vCoRoutineSchedule+0x136>
    2d4a:	a1 cf       	rjmp	.-190    	; 0x2c8e <vCoRoutineSchedule+0x78>
    2d4c:	90 93 90 01 	sts	0x0190, r25
    2d50:	80 93 8f 01 	sts	0x018F, r24
    2d54:	90 91 8e 01 	lds	r25, 0x018E
    2d58:	29 e0       	ldi	r18, 0x09	; 9
    2d5a:	06 c0       	rjmp	.+12     	; 0x2d68 <vCoRoutineSchedule+0x152>
    2d5c:	99 23       	and	r25, r25
    2d5e:	19 f4       	brne	.+6      	; 0x2d66 <vCoRoutineSchedule+0x150>
    2d60:	10 92 8e 01 	sts	0x018E, r1
    2d64:	32 c0       	rjmp	.+100    	; 0x2dca <vCoRoutineSchedule+0x1b4>
    2d66:	91 50       	subi	r25, 0x01	; 1
    2d68:	92 9f       	mul	r25, r18
    2d6a:	d0 01       	movw	r26, r0
    2d6c:	11 24       	eor	r1, r1
    2d6e:	ab 56       	subi	r26, 0x6B	; 107
    2d70:	be 4f       	sbci	r27, 0xFE	; 254
    2d72:	8c 91       	ld	r24, X
    2d74:	88 23       	and	r24, r24
    2d76:	91 f3       	breq	.-28     	; 0x2d5c <vCoRoutineSchedule+0x146>
    2d78:	90 93 8e 01 	sts	0x018E, r25
    2d7c:	11 96       	adiw	r26, 0x01	; 1
    2d7e:	ed 91       	ld	r30, X+
    2d80:	fc 91       	ld	r31, X
    2d82:	12 97       	sbiw	r26, 0x02	; 2
    2d84:	02 80       	ldd	r0, Z+2	; 0x02
    2d86:	f3 81       	ldd	r31, Z+3	; 0x03
    2d88:	e0 2d       	mov	r30, r0
    2d8a:	12 96       	adiw	r26, 0x02	; 2
    2d8c:	fc 93       	st	X, r31
    2d8e:	ee 93       	st	-X, r30
    2d90:	11 97       	sbiw	r26, 0x01	; 1
    2d92:	cd 01       	movw	r24, r26
    2d94:	03 96       	adiw	r24, 0x03	; 3
    2d96:	e8 17       	cp	r30, r24
    2d98:	f9 07       	cpc	r31, r25
    2d9a:	31 f4       	brne	.+12     	; 0x2da8 <vCoRoutineSchedule+0x192>
    2d9c:	82 81       	ldd	r24, Z+2	; 0x02
    2d9e:	93 81       	ldd	r25, Z+3	; 0x03
    2da0:	12 96       	adiw	r26, 0x02	; 2
    2da2:	9c 93       	st	X, r25
    2da4:	8e 93       	st	-X, r24
    2da6:	11 97       	sbiw	r26, 0x01	; 1
    2da8:	11 96       	adiw	r26, 0x01	; 1
    2daa:	ed 91       	ld	r30, X+
    2dac:	fc 91       	ld	r31, X
    2dae:	12 97       	sbiw	r26, 0x02	; 2
    2db0:	06 80       	ldd	r0, Z+6	; 0x06
    2db2:	f7 81       	ldd	r31, Z+7	; 0x07
    2db4:	e0 2d       	mov	r30, r0
    2db6:	f0 93 8d 01 	sts	0x018D, r31
    2dba:	e0 93 8c 01 	sts	0x018C, r30
    2dbe:	20 81       	ld	r18, Z
    2dc0:	31 81       	ldd	r19, Z+1	; 0x01
    2dc2:	cf 01       	movw	r24, r30
    2dc4:	67 89       	ldd	r22, Z+23	; 0x17
    2dc6:	f9 01       	movw	r30, r18
    2dc8:	09 95       	icall
    2dca:	df 91       	pop	r29
    2dcc:	cf 91       	pop	r28
    2dce:	1f 91       	pop	r17
    2dd0:	0f 91       	pop	r16
    2dd2:	ff 90       	pop	r15
    2dd4:	08 95       	ret

00002dd6 <vCoRoutineAddToDelayedList>:
    2dd6:	0f 93       	push	r16
    2dd8:	1f 93       	push	r17
    2dda:	cf 93       	push	r28
    2ddc:	df 93       	push	r29
    2dde:	eb 01       	movw	r28, r22
    2de0:	00 91 93 01 	lds	r16, 0x0193
    2de4:	10 91 94 01 	lds	r17, 0x0194
    2de8:	08 0f       	add	r16, r24
    2dea:	19 1f       	adc	r17, r25
    2dec:	80 91 8c 01 	lds	r24, 0x018C
    2df0:	90 91 8d 01 	lds	r25, 0x018D
    2df4:	02 96       	adiw	r24, 0x02	; 2
    2df6:	0e 94 4b 18 	call	0x3096	; 0x3096 <vListRemove>
    2dfa:	e0 91 8c 01 	lds	r30, 0x018C
    2dfe:	f0 91 8d 01 	lds	r31, 0x018D
    2e02:	13 83       	std	Z+3, r17	; 0x03
    2e04:	02 83       	std	Z+2, r16	; 0x02
    2e06:	80 91 93 01 	lds	r24, 0x0193
    2e0a:	90 91 94 01 	lds	r25, 0x0194
    2e0e:	bf 01       	movw	r22, r30
    2e10:	6e 5f       	subi	r22, 0xFE	; 254
    2e12:	7f 4f       	sbci	r23, 0xFF	; 255
    2e14:	08 17       	cp	r16, r24
    2e16:	19 07       	cpc	r17, r25
    2e18:	28 f4       	brcc	.+10     	; 0x2e24 <vCoRoutineAddToDelayedList+0x4e>
    2e1a:	80 91 bb 01 	lds	r24, 0x01BB
    2e1e:	90 91 bc 01 	lds	r25, 0x01BC
    2e22:	04 c0       	rjmp	.+8      	; 0x2e2c <vCoRoutineAddToDelayedList+0x56>
    2e24:	80 91 b9 01 	lds	r24, 0x01B9
    2e28:	90 91 ba 01 	lds	r25, 0x01BA
    2e2c:	0e 94 16 18 	call	0x302c	; 0x302c <vListInsert>
    2e30:	20 97       	sbiw	r28, 0x00	; 0
    2e32:	49 f0       	breq	.+18     	; 0x2e46 <vCoRoutineAddToDelayedList+0x70>
    2e34:	60 91 8c 01 	lds	r22, 0x018C
    2e38:	70 91 8d 01 	lds	r23, 0x018D
    2e3c:	64 5f       	subi	r22, 0xF4	; 244
    2e3e:	7f 4f       	sbci	r23, 0xFF	; 255
    2e40:	ce 01       	movw	r24, r28
    2e42:	0e 94 16 18 	call	0x302c	; 0x302c <vListInsert>
    2e46:	df 91       	pop	r29
    2e48:	cf 91       	pop	r28
    2e4a:	1f 91       	pop	r17
    2e4c:	0f 91       	pop	r16
    2e4e:	08 95       	ret

00002e50 <xCoRoutineCreate>:
    2e50:	af 92       	push	r10
    2e52:	bf 92       	push	r11
    2e54:	cf 92       	push	r12
    2e56:	df 92       	push	r13
    2e58:	ef 92       	push	r14
    2e5a:	ff 92       	push	r15
    2e5c:	0f 93       	push	r16
    2e5e:	1f 93       	push	r17
    2e60:	cf 93       	push	r28
    2e62:	df 93       	push	r29
    2e64:	6c 01       	movw	r12, r24
    2e66:	b6 2e       	mov	r11, r22
    2e68:	a4 2e       	mov	r10, r20
    2e6a:	8a e1       	ldi	r24, 0x1A	; 26
    2e6c:	90 e0       	ldi	r25, 0x00	; 0
    2e6e:	0e 94 b2 17 	call	0x2f64	; 0x2f64 <pvPortMalloc>
    2e72:	ec 01       	movw	r28, r24
    2e74:	00 97       	sbiw	r24, 0x00	; 0
    2e76:	11 f4       	brne	.+4      	; 0x2e7c <xCoRoutineCreate+0x2c>
    2e78:	8f ef       	ldi	r24, 0xFF	; 255
    2e7a:	59 c0       	rjmp	.+178    	; 0x2f2e <xCoRoutineCreate+0xde>
    2e7c:	80 91 8c 01 	lds	r24, 0x018C
    2e80:	90 91 8d 01 	lds	r25, 0x018D
    2e84:	89 2b       	or	r24, r25
    2e86:	21 f5       	brne	.+72     	; 0x2ed0 <xCoRoutineCreate+0x80>
    2e88:	d0 93 8d 01 	sts	0x018D, r29
    2e8c:	c0 93 8c 01 	sts	0x018C, r28
    2e90:	85 e9       	ldi	r24, 0x95	; 149
    2e92:	91 e0       	ldi	r25, 0x01	; 1
    2e94:	0e 94 d9 17 	call	0x2fb2	; 0x2fb2 <vListInitialise>
    2e98:	8e e9       	ldi	r24, 0x9E	; 158
    2e9a:	91 e0       	ldi	r25, 0x01	; 1
    2e9c:	0e 94 d9 17 	call	0x2fb2	; 0x2fb2 <vListInitialise>
    2ea0:	27 ea       	ldi	r18, 0xA7	; 167
    2ea2:	e2 2e       	mov	r14, r18
    2ea4:	21 e0       	ldi	r18, 0x01	; 1
    2ea6:	f2 2e       	mov	r15, r18
    2ea8:	c7 01       	movw	r24, r14
    2eaa:	0e 94 d9 17 	call	0x2fb2	; 0x2fb2 <vListInitialise>
    2eae:	00 eb       	ldi	r16, 0xB0	; 176
    2eb0:	11 e0       	ldi	r17, 0x01	; 1
    2eb2:	c8 01       	movw	r24, r16
    2eb4:	0e 94 d9 17 	call	0x2fb2	; 0x2fb2 <vListInitialise>
    2eb8:	8d eb       	ldi	r24, 0xBD	; 189
    2eba:	91 e0       	ldi	r25, 0x01	; 1
    2ebc:	0e 94 d9 17 	call	0x2fb2	; 0x2fb2 <vListInitialise>
    2ec0:	f0 92 ba 01 	sts	0x01BA, r15
    2ec4:	e0 92 b9 01 	sts	0x01B9, r14
    2ec8:	10 93 bc 01 	sts	0x01BC, r17
    2ecc:	00 93 bb 01 	sts	0x01BB, r16
    2ed0:	eb 2c       	mov	r14, r11
    2ed2:	bb 20       	and	r11, r11
    2ed4:	11 f0       	breq	.+4      	; 0x2eda <xCoRoutineCreate+0x8a>
    2ed6:	ee 24       	eor	r14, r14
    2ed8:	e3 94       	inc	r14
    2eda:	19 8e       	std	Y+25, r1	; 0x19
    2edc:	18 8e       	std	Y+24, r1	; 0x18
    2ede:	ee 8a       	std	Y+22, r14	; 0x16
    2ee0:	af 8a       	std	Y+23, r10	; 0x17
    2ee2:	fe 01       	movw	r30, r28
    2ee4:	c1 92       	st	Z+, r12
    2ee6:	d1 92       	st	Z+, r13
    2ee8:	8f 01       	movw	r16, r30
    2eea:	cf 01       	movw	r24, r30
    2eec:	0e 94 e9 17 	call	0x2fd2	; 0x2fd2 <vListInitialiseItem>
    2ef0:	ce 01       	movw	r24, r28
    2ef2:	0c 96       	adiw	r24, 0x0c	; 12
    2ef4:	0e 94 e9 17 	call	0x2fd2	; 0x2fd2 <vListInitialiseItem>
    2ef8:	d9 87       	std	Y+9, r29	; 0x09
    2efa:	c8 87       	std	Y+8, r28	; 0x08
    2efc:	db 8b       	std	Y+19, r29	; 0x13
    2efe:	ca 8b       	std	Y+18, r28	; 0x12
    2f00:	85 e0       	ldi	r24, 0x05	; 5
    2f02:	90 e0       	ldi	r25, 0x00	; 0
    2f04:	8e 19       	sub	r24, r14
    2f06:	91 09       	sbc	r25, r1
    2f08:	9d 87       	std	Y+13, r25	; 0x0d
    2f0a:	8c 87       	std	Y+12, r24	; 0x0c
    2f0c:	9e 89       	ldd	r25, Y+22	; 0x16
    2f0e:	80 91 8e 01 	lds	r24, 0x018E
    2f12:	89 17       	cp	r24, r25
    2f14:	10 f4       	brcc	.+4      	; 0x2f1a <xCoRoutineCreate+0xca>
    2f16:	90 93 8e 01 	sts	0x018E, r25
    2f1a:	89 e0       	ldi	r24, 0x09	; 9
    2f1c:	98 9f       	mul	r25, r24
    2f1e:	c0 01       	movw	r24, r0
    2f20:	11 24       	eor	r1, r1
    2f22:	8b 56       	subi	r24, 0x6B	; 107
    2f24:	9e 4f       	sbci	r25, 0xFE	; 254
    2f26:	b8 01       	movw	r22, r16
    2f28:	0e 94 ed 17 	call	0x2fda	; 0x2fda <vListInsertEnd>
    2f2c:	81 e0       	ldi	r24, 0x01	; 1
    2f2e:	df 91       	pop	r29
    2f30:	cf 91       	pop	r28
    2f32:	1f 91       	pop	r17
    2f34:	0f 91       	pop	r16
    2f36:	ff 90       	pop	r15
    2f38:	ef 90       	pop	r14
    2f3a:	df 90       	pop	r13
    2f3c:	cf 90       	pop	r12
    2f3e:	bf 90       	pop	r11
    2f40:	af 90       	pop	r10
    2f42:	08 95       	ret

00002f44 <vPortFree>:
    2f44:	08 95       	ret

00002f46 <vPortInitialiseBlocks>:
    2f46:	10 92 c7 01 	sts	0x01C7, r1
    2f4a:	10 92 c6 01 	sts	0x01C6, r1
    2f4e:	08 95       	ret

00002f50 <xPortGetFreeHeapSize>:
    2f50:	24 e8       	ldi	r18, 0x84	; 132
    2f52:	33 e0       	ldi	r19, 0x03	; 3
    2f54:	80 91 c6 01 	lds	r24, 0x01C6
    2f58:	90 91 c7 01 	lds	r25, 0x01C7
    2f5c:	28 1b       	sub	r18, r24
    2f5e:	39 0b       	sbc	r19, r25
    2f60:	c9 01       	movw	r24, r18
    2f62:	08 95       	ret

00002f64 <pvPortMalloc>:
    2f64:	0f 93       	push	r16
    2f66:	1f 93       	push	r17
    2f68:	cf 93       	push	r28
    2f6a:	df 93       	push	r29
    2f6c:	8c 01       	movw	r16, r24
    2f6e:	0e 94 95 1c 	call	0x392a	; 0x392a <vTaskSuspendAll>
    2f72:	80 91 c6 01 	lds	r24, 0x01C6
    2f76:	90 91 c7 01 	lds	r25, 0x01C7
    2f7a:	98 01       	movw	r18, r16
    2f7c:	28 0f       	add	r18, r24
    2f7e:	39 1f       	adc	r19, r25
    2f80:	43 e0       	ldi	r20, 0x03	; 3
    2f82:	24 38       	cpi	r18, 0x84	; 132
    2f84:	34 07       	cpc	r19, r20
    2f86:	58 f4       	brcc	.+22     	; 0x2f9e <pvPortMalloc+0x3a>
    2f88:	82 17       	cp	r24, r18
    2f8a:	93 07       	cpc	r25, r19
    2f8c:	40 f4       	brcc	.+16     	; 0x2f9e <pvPortMalloc+0x3a>
    2f8e:	ec 01       	movw	r28, r24
    2f90:	c8 53       	subi	r28, 0x38	; 56
    2f92:	de 4f       	sbci	r29, 0xFE	; 254
    2f94:	30 93 c7 01 	sts	0x01C7, r19
    2f98:	20 93 c6 01 	sts	0x01C6, r18
    2f9c:	02 c0       	rjmp	.+4      	; 0x2fa2 <pvPortMalloc+0x3e>
    2f9e:	c0 e0       	ldi	r28, 0x00	; 0
    2fa0:	d0 e0       	ldi	r29, 0x00	; 0
    2fa2:	0e 94 71 1e 	call	0x3ce2	; 0x3ce2 <xTaskResumeAll>
    2fa6:	ce 01       	movw	r24, r28
    2fa8:	df 91       	pop	r29
    2faa:	cf 91       	pop	r28
    2fac:	1f 91       	pop	r17
    2fae:	0f 91       	pop	r16
    2fb0:	08 95       	ret

00002fb2 <vListInitialise>:
    2fb2:	fc 01       	movw	r30, r24
    2fb4:	9c 01       	movw	r18, r24
    2fb6:	2d 5f       	subi	r18, 0xFD	; 253
    2fb8:	3f 4f       	sbci	r19, 0xFF	; 255
    2fba:	32 83       	std	Z+2, r19	; 0x02
    2fbc:	21 83       	std	Z+1, r18	; 0x01
    2fbe:	8f ef       	ldi	r24, 0xFF	; 255
    2fc0:	9f ef       	ldi	r25, 0xFF	; 255
    2fc2:	94 83       	std	Z+4, r25	; 0x04
    2fc4:	83 83       	std	Z+3, r24	; 0x03
    2fc6:	36 83       	std	Z+6, r19	; 0x06
    2fc8:	25 83       	std	Z+5, r18	; 0x05
    2fca:	30 87       	std	Z+8, r19	; 0x08
    2fcc:	27 83       	std	Z+7, r18	; 0x07
    2fce:	10 82       	st	Z, r1
    2fd0:	08 95       	ret

00002fd2 <vListInitialiseItem>:
    2fd2:	fc 01       	movw	r30, r24
    2fd4:	11 86       	std	Z+9, r1	; 0x09
    2fd6:	10 86       	std	Z+8, r1	; 0x08
    2fd8:	08 95       	ret

00002fda <vListInsertEnd>:
    2fda:	cf 93       	push	r28
    2fdc:	df 93       	push	r29
    2fde:	ac 01       	movw	r20, r24
    2fe0:	db 01       	movw	r26, r22
    2fe2:	ec 01       	movw	r28, r24
    2fe4:	29 81       	ldd	r18, Y+1	; 0x01
    2fe6:	3a 81       	ldd	r19, Y+2	; 0x02
    2fe8:	f9 01       	movw	r30, r18
    2fea:	82 81       	ldd	r24, Z+2	; 0x02
    2fec:	93 81       	ldd	r25, Z+3	; 0x03
    2fee:	13 96       	adiw	r26, 0x03	; 3
    2ff0:	9c 93       	st	X, r25
    2ff2:	8e 93       	st	-X, r24
    2ff4:	12 97       	sbiw	r26, 0x02	; 2
    2ff6:	89 81       	ldd	r24, Y+1	; 0x01
    2ff8:	9a 81       	ldd	r25, Y+2	; 0x02
    2ffa:	15 96       	adiw	r26, 0x05	; 5
    2ffc:	9c 93       	st	X, r25
    2ffe:	8e 93       	st	-X, r24
    3000:	14 97       	sbiw	r26, 0x04	; 4
    3002:	02 80       	ldd	r0, Z+2	; 0x02
    3004:	f3 81       	ldd	r31, Z+3	; 0x03
    3006:	e0 2d       	mov	r30, r0
    3008:	75 83       	std	Z+5, r23	; 0x05
    300a:	64 83       	std	Z+4, r22	; 0x04
    300c:	e9 01       	movw	r28, r18
    300e:	7b 83       	std	Y+3, r23	; 0x03
    3010:	6a 83       	std	Y+2, r22	; 0x02
    3012:	fa 01       	movw	r30, r20
    3014:	72 83       	std	Z+2, r23	; 0x02
    3016:	61 83       	std	Z+1, r22	; 0x01
    3018:	19 96       	adiw	r26, 0x09	; 9
    301a:	5c 93       	st	X, r21
    301c:	4e 93       	st	-X, r20
    301e:	18 97       	sbiw	r26, 0x08	; 8
    3020:	80 81       	ld	r24, Z
    3022:	8f 5f       	subi	r24, 0xFF	; 255
    3024:	80 83       	st	Z, r24
    3026:	df 91       	pop	r29
    3028:	cf 91       	pop	r28
    302a:	08 95       	ret

0000302c <vListInsert>:
    302c:	cf 93       	push	r28
    302e:	df 93       	push	r29
    3030:	9c 01       	movw	r18, r24
    3032:	eb 01       	movw	r28, r22
    3034:	48 81       	ld	r20, Y
    3036:	59 81       	ldd	r21, Y+1	; 0x01
    3038:	8f ef       	ldi	r24, 0xFF	; 255
    303a:	4f 3f       	cpi	r20, 0xFF	; 255
    303c:	58 07       	cpc	r21, r24
    303e:	21 f4       	brne	.+8      	; 0x3048 <vListInsert+0x1c>
    3040:	f9 01       	movw	r30, r18
    3042:	a7 81       	ldd	r26, Z+7	; 0x07
    3044:	b0 85       	ldd	r27, Z+8	; 0x08
    3046:	10 c0       	rjmp	.+32     	; 0x3068 <vListInsert+0x3c>
    3048:	d9 01       	movw	r26, r18
    304a:	13 96       	adiw	r26, 0x03	; 3
    304c:	04 c0       	rjmp	.+8      	; 0x3056 <vListInsert+0x2a>
    304e:	12 96       	adiw	r26, 0x02	; 2
    3050:	0d 90       	ld	r0, X+
    3052:	bc 91       	ld	r27, X
    3054:	a0 2d       	mov	r26, r0
    3056:	12 96       	adiw	r26, 0x02	; 2
    3058:	ed 91       	ld	r30, X+
    305a:	fc 91       	ld	r31, X
    305c:	13 97       	sbiw	r26, 0x03	; 3
    305e:	80 81       	ld	r24, Z
    3060:	91 81       	ldd	r25, Z+1	; 0x01
    3062:	48 17       	cp	r20, r24
    3064:	59 07       	cpc	r21, r25
    3066:	98 f7       	brcc	.-26     	; 0x304e <vListInsert+0x22>
    3068:	12 96       	adiw	r26, 0x02	; 2
    306a:	ed 91       	ld	r30, X+
    306c:	fc 91       	ld	r31, X
    306e:	13 97       	sbiw	r26, 0x03	; 3
    3070:	fb 83       	std	Y+3, r31	; 0x03
    3072:	ea 83       	std	Y+2, r30	; 0x02
    3074:	d5 83       	std	Z+5, r29	; 0x05
    3076:	c4 83       	std	Z+4, r28	; 0x04
    3078:	bd 83       	std	Y+5, r27	; 0x05
    307a:	ac 83       	std	Y+4, r26	; 0x04
    307c:	13 96       	adiw	r26, 0x03	; 3
    307e:	dc 93       	st	X, r29
    3080:	ce 93       	st	-X, r28
    3082:	12 97       	sbiw	r26, 0x02	; 2
    3084:	39 87       	std	Y+9, r19	; 0x09
    3086:	28 87       	std	Y+8, r18	; 0x08
    3088:	f9 01       	movw	r30, r18
    308a:	80 81       	ld	r24, Z
    308c:	8f 5f       	subi	r24, 0xFF	; 255
    308e:	80 83       	st	Z, r24
    3090:	df 91       	pop	r29
    3092:	cf 91       	pop	r28
    3094:	08 95       	ret

00003096 <vListRemove>:
    3096:	cf 93       	push	r28
    3098:	df 93       	push	r29
    309a:	dc 01       	movw	r26, r24
    309c:	12 96       	adiw	r26, 0x02	; 2
    309e:	ed 91       	ld	r30, X+
    30a0:	fc 91       	ld	r31, X
    30a2:	13 97       	sbiw	r26, 0x03	; 3
    30a4:	14 96       	adiw	r26, 0x04	; 4
    30a6:	8d 91       	ld	r24, X+
    30a8:	9c 91       	ld	r25, X
    30aa:	15 97       	sbiw	r26, 0x05	; 5
    30ac:	95 83       	std	Z+5, r25	; 0x05
    30ae:	84 83       	std	Z+4, r24	; 0x04
    30b0:	14 96       	adiw	r26, 0x04	; 4
    30b2:	cd 91       	ld	r28, X+
    30b4:	dc 91       	ld	r29, X
    30b6:	15 97       	sbiw	r26, 0x05	; 5
    30b8:	fb 83       	std	Y+3, r31	; 0x03
    30ba:	ea 83       	std	Y+2, r30	; 0x02
    30bc:	18 96       	adiw	r26, 0x08	; 8
    30be:	ed 91       	ld	r30, X+
    30c0:	fc 91       	ld	r31, X
    30c2:	19 97       	sbiw	r26, 0x09	; 9
    30c4:	81 81       	ldd	r24, Z+1	; 0x01
    30c6:	92 81       	ldd	r25, Z+2	; 0x02
    30c8:	8a 17       	cp	r24, r26
    30ca:	9b 07       	cpc	r25, r27
    30cc:	11 f4       	brne	.+4      	; 0x30d2 <vListRemove+0x3c>
    30ce:	d2 83       	std	Z+2, r29	; 0x02
    30d0:	c1 83       	std	Z+1, r28	; 0x01
    30d2:	19 96       	adiw	r26, 0x09	; 9
    30d4:	1c 92       	st	X, r1
    30d6:	1e 92       	st	-X, r1
    30d8:	18 97       	sbiw	r26, 0x08	; 8
    30da:	80 81       	ld	r24, Z
    30dc:	81 50       	subi	r24, 0x01	; 1
    30de:	80 83       	st	Z, r24
    30e0:	df 91       	pop	r29
    30e2:	cf 91       	pop	r28
    30e4:	08 95       	ret

000030e6 <pxPortInitialiseStack>:
    30e6:	fc 01       	movw	r30, r24
    30e8:	91 e1       	ldi	r25, 0x11	; 17
    30ea:	90 83       	st	Z, r25
    30ec:	22 e2       	ldi	r18, 0x22	; 34
    30ee:	22 93       	st	-Z, r18
    30f0:	83 e3       	ldi	r24, 0x33	; 51
    30f2:	82 93       	st	-Z, r24
    30f4:	62 93       	st	-Z, r22
    30f6:	72 93       	st	-Z, r23
    30f8:	12 92       	st	-Z, r1
    30fa:	80 e8       	ldi	r24, 0x80	; 128
    30fc:	82 93       	st	-Z, r24
    30fe:	12 92       	st	-Z, r1
    3100:	82 e0       	ldi	r24, 0x02	; 2
    3102:	82 93       	st	-Z, r24
    3104:	83 e0       	ldi	r24, 0x03	; 3
    3106:	82 93       	st	-Z, r24
    3108:	84 e0       	ldi	r24, 0x04	; 4
    310a:	82 93       	st	-Z, r24
    310c:	85 e0       	ldi	r24, 0x05	; 5
    310e:	82 93       	st	-Z, r24
    3110:	86 e0       	ldi	r24, 0x06	; 6
    3112:	82 93       	st	-Z, r24
    3114:	87 e0       	ldi	r24, 0x07	; 7
    3116:	82 93       	st	-Z, r24
    3118:	88 e0       	ldi	r24, 0x08	; 8
    311a:	82 93       	st	-Z, r24
    311c:	89 e0       	ldi	r24, 0x09	; 9
    311e:	82 93       	st	-Z, r24
    3120:	80 e1       	ldi	r24, 0x10	; 16
    3122:	82 93       	st	-Z, r24
    3124:	92 93       	st	-Z, r25
    3126:	82 e1       	ldi	r24, 0x12	; 18
    3128:	82 93       	st	-Z, r24
    312a:	83 e1       	ldi	r24, 0x13	; 19
    312c:	82 93       	st	-Z, r24
    312e:	84 e1       	ldi	r24, 0x14	; 20
    3130:	82 93       	st	-Z, r24
    3132:	85 e1       	ldi	r24, 0x15	; 21
    3134:	82 93       	st	-Z, r24
    3136:	86 e1       	ldi	r24, 0x16	; 22
    3138:	82 93       	st	-Z, r24
    313a:	87 e1       	ldi	r24, 0x17	; 23
    313c:	82 93       	st	-Z, r24
    313e:	88 e1       	ldi	r24, 0x18	; 24
    3140:	82 93       	st	-Z, r24
    3142:	89 e1       	ldi	r24, 0x19	; 25
    3144:	82 93       	st	-Z, r24
    3146:	80 e2       	ldi	r24, 0x20	; 32
    3148:	82 93       	st	-Z, r24
    314a:	81 e2       	ldi	r24, 0x21	; 33
    314c:	82 93       	st	-Z, r24
    314e:	22 93       	st	-Z, r18
    3150:	83 e2       	ldi	r24, 0x23	; 35
    3152:	82 93       	st	-Z, r24
    3154:	42 93       	st	-Z, r20
    3156:	52 93       	st	-Z, r21
    3158:	86 e2       	ldi	r24, 0x26	; 38
    315a:	82 93       	st	-Z, r24
    315c:	87 e2       	ldi	r24, 0x27	; 39
    315e:	82 93       	st	-Z, r24
    3160:	88 e2       	ldi	r24, 0x28	; 40
    3162:	82 93       	st	-Z, r24
    3164:	89 e2       	ldi	r24, 0x29	; 41
    3166:	82 93       	st	-Z, r24
    3168:	80 e3       	ldi	r24, 0x30	; 48
    316a:	82 93       	st	-Z, r24
    316c:	81 e3       	ldi	r24, 0x31	; 49
    316e:	82 93       	st	-Z, r24
    3170:	31 97       	sbiw	r30, 0x01	; 1
    3172:	cf 01       	movw	r24, r30
    3174:	08 95       	ret

00003176 <xPortStartScheduler>:
    3176:	1b bc       	out	0x2b, r1	; 43
    3178:	8c e7       	ldi	r24, 0x7C	; 124
    317a:	8a bd       	out	0x2a, r24	; 42
    317c:	8b e0       	ldi	r24, 0x0B	; 11
    317e:	8e bd       	out	0x2e, r24	; 46
    3180:	89 b7       	in	r24, 0x39	; 57
    3182:	80 61       	ori	r24, 0x10	; 16
    3184:	89 bf       	out	0x39, r24	; 57
    3186:	a0 91 4c 05 	lds	r26, 0x054C
    318a:	b0 91 4d 05 	lds	r27, 0x054D
    318e:	cd 91       	ld	r28, X+
    3190:	cd bf       	out	0x3d, r28	; 61
    3192:	dd 91       	ld	r29, X+
    3194:	de bf       	out	0x3e, r29	; 62
    3196:	ff 91       	pop	r31
    3198:	ef 91       	pop	r30
    319a:	df 91       	pop	r29
    319c:	cf 91       	pop	r28
    319e:	bf 91       	pop	r27
    31a0:	af 91       	pop	r26
    31a2:	9f 91       	pop	r25
    31a4:	8f 91       	pop	r24
    31a6:	7f 91       	pop	r23
    31a8:	6f 91       	pop	r22
    31aa:	5f 91       	pop	r21
    31ac:	4f 91       	pop	r20
    31ae:	3f 91       	pop	r19
    31b0:	2f 91       	pop	r18
    31b2:	1f 91       	pop	r17
    31b4:	0f 91       	pop	r16
    31b6:	ff 90       	pop	r15
    31b8:	ef 90       	pop	r14
    31ba:	df 90       	pop	r13
    31bc:	cf 90       	pop	r12
    31be:	bf 90       	pop	r11
    31c0:	af 90       	pop	r10
    31c2:	9f 90       	pop	r9
    31c4:	8f 90       	pop	r8
    31c6:	7f 90       	pop	r7
    31c8:	6f 90       	pop	r6
    31ca:	5f 90       	pop	r5
    31cc:	4f 90       	pop	r4
    31ce:	3f 90       	pop	r3
    31d0:	2f 90       	pop	r2
    31d2:	1f 90       	pop	r1
    31d4:	0f 90       	pop	r0
    31d6:	0f be       	out	0x3f, r0	; 63
    31d8:	0f 90       	pop	r0
    31da:	08 95       	ret
    31dc:	81 e0       	ldi	r24, 0x01	; 1
    31de:	08 95       	ret

000031e0 <vPortEndScheduler>:
    31e0:	08 95       	ret

000031e2 <vPortYieldFromTick>:
    31e2:	0f 92       	push	r0
    31e4:	0f b6       	in	r0, 0x3f	; 63
    31e6:	f8 94       	cli
    31e8:	0f 92       	push	r0
    31ea:	1f 92       	push	r1
    31ec:	11 24       	eor	r1, r1
    31ee:	2f 92       	push	r2
    31f0:	3f 92       	push	r3
    31f2:	4f 92       	push	r4
    31f4:	5f 92       	push	r5
    31f6:	6f 92       	push	r6
    31f8:	7f 92       	push	r7
    31fa:	8f 92       	push	r8
    31fc:	9f 92       	push	r9
    31fe:	af 92       	push	r10
    3200:	bf 92       	push	r11
    3202:	cf 92       	push	r12
    3204:	df 92       	push	r13
    3206:	ef 92       	push	r14
    3208:	ff 92       	push	r15
    320a:	0f 93       	push	r16
    320c:	1f 93       	push	r17
    320e:	2f 93       	push	r18
    3210:	3f 93       	push	r19
    3212:	4f 93       	push	r20
    3214:	5f 93       	push	r21
    3216:	6f 93       	push	r22
    3218:	7f 93       	push	r23
    321a:	8f 93       	push	r24
    321c:	9f 93       	push	r25
    321e:	af 93       	push	r26
    3220:	bf 93       	push	r27
    3222:	cf 93       	push	r28
    3224:	df 93       	push	r29
    3226:	ef 93       	push	r30
    3228:	ff 93       	push	r31
    322a:	a0 91 4c 05 	lds	r26, 0x054C
    322e:	b0 91 4d 05 	lds	r27, 0x054D
    3232:	0d b6       	in	r0, 0x3d	; 61
    3234:	0d 92       	st	X+, r0
    3236:	0e b6       	in	r0, 0x3e	; 62
    3238:	0d 92       	st	X+, r0
    323a:	0e 94 79 1d 	call	0x3af2	; 0x3af2 <vTaskIncrementTick>
    323e:	0e 94 af 1c 	call	0x395e	; 0x395e <vTaskSwitchContext>
    3242:	a0 91 4c 05 	lds	r26, 0x054C
    3246:	b0 91 4d 05 	lds	r27, 0x054D
    324a:	cd 91       	ld	r28, X+
    324c:	cd bf       	out	0x3d, r28	; 61
    324e:	dd 91       	ld	r29, X+
    3250:	de bf       	out	0x3e, r29	; 62
    3252:	ff 91       	pop	r31
    3254:	ef 91       	pop	r30
    3256:	df 91       	pop	r29
    3258:	cf 91       	pop	r28
    325a:	bf 91       	pop	r27
    325c:	af 91       	pop	r26
    325e:	9f 91       	pop	r25
    3260:	8f 91       	pop	r24
    3262:	7f 91       	pop	r23
    3264:	6f 91       	pop	r22
    3266:	5f 91       	pop	r21
    3268:	4f 91       	pop	r20
    326a:	3f 91       	pop	r19
    326c:	2f 91       	pop	r18
    326e:	1f 91       	pop	r17
    3270:	0f 91       	pop	r16
    3272:	ff 90       	pop	r15
    3274:	ef 90       	pop	r14
    3276:	df 90       	pop	r13
    3278:	cf 90       	pop	r12
    327a:	bf 90       	pop	r11
    327c:	af 90       	pop	r10
    327e:	9f 90       	pop	r9
    3280:	8f 90       	pop	r8
    3282:	7f 90       	pop	r7
    3284:	6f 90       	pop	r6
    3286:	5f 90       	pop	r5
    3288:	4f 90       	pop	r4
    328a:	3f 90       	pop	r3
    328c:	2f 90       	pop	r2
    328e:	1f 90       	pop	r1
    3290:	0f 90       	pop	r0
    3292:	0f be       	out	0x3f, r0	; 63
    3294:	0f 90       	pop	r0
    3296:	08 95       	ret

00003298 <__vector_7>:
    3298:	0e 94 f1 18 	call	0x31e2	; 0x31e2 <vPortYieldFromTick>
    329c:	18 95       	reti

0000329e <vPortYield>:
    329e:	0f 92       	push	r0
    32a0:	0f b6       	in	r0, 0x3f	; 63
    32a2:	f8 94       	cli
    32a4:	0f 92       	push	r0
    32a6:	1f 92       	push	r1
    32a8:	11 24       	eor	r1, r1
    32aa:	2f 92       	push	r2
    32ac:	3f 92       	push	r3
    32ae:	4f 92       	push	r4
    32b0:	5f 92       	push	r5
    32b2:	6f 92       	push	r6
    32b4:	7f 92       	push	r7
    32b6:	8f 92       	push	r8
    32b8:	9f 92       	push	r9
    32ba:	af 92       	push	r10
    32bc:	bf 92       	push	r11
    32be:	cf 92       	push	r12
    32c0:	df 92       	push	r13
    32c2:	ef 92       	push	r14
    32c4:	ff 92       	push	r15
    32c6:	0f 93       	push	r16
    32c8:	1f 93       	push	r17
    32ca:	2f 93       	push	r18
    32cc:	3f 93       	push	r19
    32ce:	4f 93       	push	r20
    32d0:	5f 93       	push	r21
    32d2:	6f 93       	push	r22
    32d4:	7f 93       	push	r23
    32d6:	8f 93       	push	r24
    32d8:	9f 93       	push	r25
    32da:	af 93       	push	r26
    32dc:	bf 93       	push	r27
    32de:	cf 93       	push	r28
    32e0:	df 93       	push	r29
    32e2:	ef 93       	push	r30
    32e4:	ff 93       	push	r31
    32e6:	a0 91 4c 05 	lds	r26, 0x054C
    32ea:	b0 91 4d 05 	lds	r27, 0x054D
    32ee:	0d b6       	in	r0, 0x3d	; 61
    32f0:	0d 92       	st	X+, r0
    32f2:	0e b6       	in	r0, 0x3e	; 62
    32f4:	0d 92       	st	X+, r0
    32f6:	0e 94 af 1c 	call	0x395e	; 0x395e <vTaskSwitchContext>
    32fa:	a0 91 4c 05 	lds	r26, 0x054C
    32fe:	b0 91 4d 05 	lds	r27, 0x054D
    3302:	cd 91       	ld	r28, X+
    3304:	cd bf       	out	0x3d, r28	; 61
    3306:	dd 91       	ld	r29, X+
    3308:	de bf       	out	0x3e, r29	; 62
    330a:	ff 91       	pop	r31
    330c:	ef 91       	pop	r30
    330e:	df 91       	pop	r29
    3310:	cf 91       	pop	r28
    3312:	bf 91       	pop	r27
    3314:	af 91       	pop	r26
    3316:	9f 91       	pop	r25
    3318:	8f 91       	pop	r24
    331a:	7f 91       	pop	r23
    331c:	6f 91       	pop	r22
    331e:	5f 91       	pop	r21
    3320:	4f 91       	pop	r20
    3322:	3f 91       	pop	r19
    3324:	2f 91       	pop	r18
    3326:	1f 91       	pop	r17
    3328:	0f 91       	pop	r16
    332a:	ff 90       	pop	r15
    332c:	ef 90       	pop	r14
    332e:	df 90       	pop	r13
    3330:	cf 90       	pop	r12
    3332:	bf 90       	pop	r11
    3334:	af 90       	pop	r10
    3336:	9f 90       	pop	r9
    3338:	8f 90       	pop	r8
    333a:	7f 90       	pop	r7
    333c:	6f 90       	pop	r6
    333e:	5f 90       	pop	r5
    3340:	4f 90       	pop	r4
    3342:	3f 90       	pop	r3
    3344:	2f 90       	pop	r2
    3346:	1f 90       	pop	r1
    3348:	0f 90       	pop	r0
    334a:	0f be       	out	0x3f, r0	; 63
    334c:	0f 90       	pop	r0
    334e:	08 95       	ret

00003350 <uxQueueMessagesWaiting>:
    3350:	fc 01       	movw	r30, r24
    3352:	0f b6       	in	r0, 0x3f	; 63
    3354:	f8 94       	cli
    3356:	0f 92       	push	r0
    3358:	82 8d       	ldd	r24, Z+26	; 0x1a
    335a:	0f 90       	pop	r0
    335c:	0f be       	out	0x3f, r0	; 63
    335e:	08 95       	ret

00003360 <uxQueueMessagesWaitingFromISR>:
    3360:	fc 01       	movw	r30, r24
    3362:	82 8d       	ldd	r24, Z+26	; 0x1a
    3364:	08 95       	ret

00003366 <xQueueIsQueueEmptyFromISR>:
    3366:	fc 01       	movw	r30, r24
    3368:	82 8d       	ldd	r24, Z+26	; 0x1a
    336a:	90 e0       	ldi	r25, 0x00	; 0
    336c:	88 23       	and	r24, r24
    336e:	09 f4       	brne	.+2      	; 0x3372 <xQueueIsQueueEmptyFromISR+0xc>
    3370:	91 e0       	ldi	r25, 0x01	; 1
    3372:	89 2f       	mov	r24, r25
    3374:	08 95       	ret

00003376 <xQueueIsQueueFullFromISR>:
    3376:	fc 01       	movw	r30, r24
    3378:	92 8d       	ldd	r25, Z+26	; 0x1a
    337a:	20 e0       	ldi	r18, 0x00	; 0
    337c:	83 8d       	ldd	r24, Z+27	; 0x1b
    337e:	98 17       	cp	r25, r24
    3380:	09 f4       	brne	.+2      	; 0x3384 <xQueueIsQueueFullFromISR+0xe>
    3382:	21 e0       	ldi	r18, 0x01	; 1
    3384:	82 2f       	mov	r24, r18
    3386:	08 95       	ret

00003388 <vQueueDelete>:
    3388:	0f 93       	push	r16
    338a:	1f 93       	push	r17
    338c:	8c 01       	movw	r16, r24
    338e:	fc 01       	movw	r30, r24
    3390:	80 81       	ld	r24, Z
    3392:	91 81       	ldd	r25, Z+1	; 0x01
    3394:	0e 94 a2 17 	call	0x2f44	; 0x2f44 <vPortFree>
    3398:	c8 01       	movw	r24, r16
    339a:	0e 94 a2 17 	call	0x2f44	; 0x2f44 <vPortFree>
    339e:	1f 91       	pop	r17
    33a0:	0f 91       	pop	r16
    33a2:	08 95       	ret

000033a4 <xQueueReceiveFromISR>:
    33a4:	0f 93       	push	r16
    33a6:	1f 93       	push	r17
    33a8:	cf 93       	push	r28
    33aa:	df 93       	push	r29
    33ac:	ec 01       	movw	r28, r24
    33ae:	fb 01       	movw	r30, r22
    33b0:	8a 01       	movw	r16, r20
    33b2:	8a 8d       	ldd	r24, Y+26	; 0x1a
    33b4:	88 23       	and	r24, r24
    33b6:	81 f1       	breq	.+96     	; 0x3418 <xQueueReceiveFromISR+0x74>
    33b8:	48 81       	ld	r20, Y
    33ba:	59 81       	ldd	r21, Y+1	; 0x01
    33bc:	41 15       	cp	r20, r1
    33be:	51 05       	cpc	r21, r1
    33c0:	a9 f0       	breq	.+42     	; 0x33ec <xQueueReceiveFromISR+0x48>
    33c2:	8c 8d       	ldd	r24, Y+28	; 0x1c
    33c4:	2e 81       	ldd	r18, Y+6	; 0x06
    33c6:	3f 81       	ldd	r19, Y+7	; 0x07
    33c8:	28 0f       	add	r18, r24
    33ca:	31 1d       	adc	r19, r1
    33cc:	3f 83       	std	Y+7, r19	; 0x07
    33ce:	2e 83       	std	Y+6, r18	; 0x06
    33d0:	8a 81       	ldd	r24, Y+2	; 0x02
    33d2:	9b 81       	ldd	r25, Y+3	; 0x03
    33d4:	28 17       	cp	r18, r24
    33d6:	39 07       	cpc	r19, r25
    33d8:	10 f0       	brcs	.+4      	; 0x33de <xQueueReceiveFromISR+0x3a>
    33da:	5f 83       	std	Y+7, r21	; 0x07
    33dc:	4e 83       	std	Y+6, r20	; 0x06
    33de:	4c 8d       	ldd	r20, Y+28	; 0x1c
    33e0:	6e 81       	ldd	r22, Y+6	; 0x06
    33e2:	7f 81       	ldd	r23, Y+7	; 0x07
    33e4:	cf 01       	movw	r24, r30
    33e6:	50 e0       	ldi	r21, 0x00	; 0
    33e8:	0e 94 6f 22 	call	0x44de	; 0x44de <memcpy>
    33ec:	8a 8d       	ldd	r24, Y+26	; 0x1a
    33ee:	81 50       	subi	r24, 0x01	; 1
    33f0:	8a 8f       	std	Y+26, r24	; 0x1a
    33f2:	8d 8d       	ldd	r24, Y+29	; 0x1d
    33f4:	8f 3f       	cpi	r24, 0xFF	; 255
    33f6:	69 f4       	brne	.+26     	; 0x3412 <xQueueReceiveFromISR+0x6e>
    33f8:	88 85       	ldd	r24, Y+8	; 0x08
    33fa:	88 23       	and	r24, r24
    33fc:	61 f0       	breq	.+24     	; 0x3416 <xQueueReceiveFromISR+0x72>
    33fe:	ce 01       	movw	r24, r28
    3400:	08 96       	adiw	r24, 0x08	; 8
    3402:	0e 94 3a 1d 	call	0x3a74	; 0x3a74 <xTaskRemoveFromEventList>
    3406:	88 23       	and	r24, r24
    3408:	31 f0       	breq	.+12     	; 0x3416 <xQueueReceiveFromISR+0x72>
    340a:	81 e0       	ldi	r24, 0x01	; 1
    340c:	f8 01       	movw	r30, r16
    340e:	80 83       	st	Z, r24
    3410:	03 c0       	rjmp	.+6      	; 0x3418 <xQueueReceiveFromISR+0x74>
    3412:	8f 5f       	subi	r24, 0xFF	; 255
    3414:	8d 8f       	std	Y+29, r24	; 0x1d
    3416:	81 e0       	ldi	r24, 0x01	; 1
    3418:	df 91       	pop	r29
    341a:	cf 91       	pop	r28
    341c:	1f 91       	pop	r17
    341e:	0f 91       	pop	r16
    3420:	08 95       	ret

00003422 <prvCopyDataToQueue>:
    3422:	cf 93       	push	r28
    3424:	df 93       	push	r29
    3426:	ec 01       	movw	r28, r24
    3428:	84 2f       	mov	r24, r20
    342a:	4c 8d       	ldd	r20, Y+28	; 0x1c
    342c:	44 23       	and	r20, r20
    342e:	a1 f1       	breq	.+104    	; 0x3498 <prvCopyDataToQueue+0x76>
    3430:	88 23       	and	r24, r24
    3432:	b1 f4       	brne	.+44     	; 0x3460 <prvCopyDataToQueue+0x3e>
    3434:	8c 81       	ldd	r24, Y+4	; 0x04
    3436:	9d 81       	ldd	r25, Y+5	; 0x05
    3438:	50 e0       	ldi	r21, 0x00	; 0
    343a:	0e 94 6f 22 	call	0x44de	; 0x44de <memcpy>
    343e:	8c 8d       	ldd	r24, Y+28	; 0x1c
    3440:	2c 81       	ldd	r18, Y+4	; 0x04
    3442:	3d 81       	ldd	r19, Y+5	; 0x05
    3444:	28 0f       	add	r18, r24
    3446:	31 1d       	adc	r19, r1
    3448:	3d 83       	std	Y+5, r19	; 0x05
    344a:	2c 83       	std	Y+4, r18	; 0x04
    344c:	8a 81       	ldd	r24, Y+2	; 0x02
    344e:	9b 81       	ldd	r25, Y+3	; 0x03
    3450:	28 17       	cp	r18, r24
    3452:	39 07       	cpc	r19, r25
    3454:	08 f1       	brcs	.+66     	; 0x3498 <prvCopyDataToQueue+0x76>
    3456:	88 81       	ld	r24, Y
    3458:	99 81       	ldd	r25, Y+1	; 0x01
    345a:	9d 83       	std	Y+5, r25	; 0x05
    345c:	8c 83       	std	Y+4, r24	; 0x04
    345e:	1c c0       	rjmp	.+56     	; 0x3498 <prvCopyDataToQueue+0x76>
    3460:	8e 81       	ldd	r24, Y+6	; 0x06
    3462:	9f 81       	ldd	r25, Y+7	; 0x07
    3464:	50 e0       	ldi	r21, 0x00	; 0
    3466:	0e 94 6f 22 	call	0x44de	; 0x44de <memcpy>
    346a:	8c 8d       	ldd	r24, Y+28	; 0x1c
    346c:	90 e0       	ldi	r25, 0x00	; 0
    346e:	44 27       	eor	r20, r20
    3470:	55 27       	eor	r21, r21
    3472:	48 1b       	sub	r20, r24
    3474:	59 0b       	sbc	r21, r25
    3476:	8e 81       	ldd	r24, Y+6	; 0x06
    3478:	9f 81       	ldd	r25, Y+7	; 0x07
    347a:	84 0f       	add	r24, r20
    347c:	95 1f       	adc	r25, r21
    347e:	9f 83       	std	Y+7, r25	; 0x07
    3480:	8e 83       	std	Y+6, r24	; 0x06
    3482:	28 81       	ld	r18, Y
    3484:	39 81       	ldd	r19, Y+1	; 0x01
    3486:	82 17       	cp	r24, r18
    3488:	93 07       	cpc	r25, r19
    348a:	30 f4       	brcc	.+12     	; 0x3498 <prvCopyDataToQueue+0x76>
    348c:	8a 81       	ldd	r24, Y+2	; 0x02
    348e:	9b 81       	ldd	r25, Y+3	; 0x03
    3490:	84 0f       	add	r24, r20
    3492:	95 1f       	adc	r25, r21
    3494:	9f 83       	std	Y+7, r25	; 0x07
    3496:	8e 83       	std	Y+6, r24	; 0x06
    3498:	8a 8d       	ldd	r24, Y+26	; 0x1a
    349a:	8f 5f       	subi	r24, 0xFF	; 255
    349c:	8a 8f       	std	Y+26, r24	; 0x1a
    349e:	df 91       	pop	r29
    34a0:	cf 91       	pop	r28
    34a2:	08 95       	ret

000034a4 <xQueueGenericSendFromISR>:
    34a4:	0f 93       	push	r16
    34a6:	1f 93       	push	r17
    34a8:	cf 93       	push	r28
    34aa:	df 93       	push	r29
    34ac:	ec 01       	movw	r28, r24
    34ae:	8a 01       	movw	r16, r20
    34b0:	9a 8d       	ldd	r25, Y+26	; 0x1a
    34b2:	8b 8d       	ldd	r24, Y+27	; 0x1b
    34b4:	98 17       	cp	r25, r24
    34b6:	10 f0       	brcs	.+4      	; 0x34bc <xQueueGenericSendFromISR+0x18>
    34b8:	80 e0       	ldi	r24, 0x00	; 0
    34ba:	17 c0       	rjmp	.+46     	; 0x34ea <xQueueGenericSendFromISR+0x46>
    34bc:	ce 01       	movw	r24, r28
    34be:	42 2f       	mov	r20, r18
    34c0:	0e 94 11 1a 	call	0x3422	; 0x3422 <prvCopyDataToQueue>
    34c4:	8e 8d       	ldd	r24, Y+30	; 0x1e
    34c6:	8f 3f       	cpi	r24, 0xFF	; 255
    34c8:	69 f4       	brne	.+26     	; 0x34e4 <xQueueGenericSendFromISR+0x40>
    34ca:	89 89       	ldd	r24, Y+17	; 0x11
    34cc:	88 23       	and	r24, r24
    34ce:	61 f0       	breq	.+24     	; 0x34e8 <xQueueGenericSendFromISR+0x44>
    34d0:	ce 01       	movw	r24, r28
    34d2:	41 96       	adiw	r24, 0x11	; 17
    34d4:	0e 94 3a 1d 	call	0x3a74	; 0x3a74 <xTaskRemoveFromEventList>
    34d8:	88 23       	and	r24, r24
    34da:	31 f0       	breq	.+12     	; 0x34e8 <xQueueGenericSendFromISR+0x44>
    34dc:	81 e0       	ldi	r24, 0x01	; 1
    34de:	f8 01       	movw	r30, r16
    34e0:	80 83       	st	Z, r24
    34e2:	03 c0       	rjmp	.+6      	; 0x34ea <xQueueGenericSendFromISR+0x46>
    34e4:	8f 5f       	subi	r24, 0xFF	; 255
    34e6:	8e 8f       	std	Y+30, r24	; 0x1e
    34e8:	81 e0       	ldi	r24, 0x01	; 1
    34ea:	df 91       	pop	r29
    34ec:	cf 91       	pop	r28
    34ee:	1f 91       	pop	r17
    34f0:	0f 91       	pop	r16
    34f2:	08 95       	ret

000034f4 <prvUnlockQueue>:
    34f4:	0f 93       	push	r16
    34f6:	1f 93       	push	r17
    34f8:	cf 93       	push	r28
    34fa:	df 93       	push	r29
    34fc:	ec 01       	movw	r28, r24
    34fe:	0f b6       	in	r0, 0x3f	; 63
    3500:	f8 94       	cli
    3502:	0f 92       	push	r0
    3504:	8c 01       	movw	r16, r24
    3506:	0f 5e       	subi	r16, 0xEF	; 239
    3508:	1f 4f       	sbci	r17, 0xFF	; 255
    350a:	0d c0       	rjmp	.+26     	; 0x3526 <prvUnlockQueue+0x32>
    350c:	89 89       	ldd	r24, Y+17	; 0x11
    350e:	88 23       	and	r24, r24
    3510:	69 f0       	breq	.+26     	; 0x352c <prvUnlockQueue+0x38>
    3512:	c8 01       	movw	r24, r16
    3514:	0e 94 3a 1d 	call	0x3a74	; 0x3a74 <xTaskRemoveFromEventList>
    3518:	88 23       	and	r24, r24
    351a:	11 f0       	breq	.+4      	; 0x3520 <prvUnlockQueue+0x2c>
    351c:	0e 94 36 1d 	call	0x3a6c	; 0x3a6c <vTaskMissedYield>
    3520:	8e 8d       	ldd	r24, Y+30	; 0x1e
    3522:	81 50       	subi	r24, 0x01	; 1
    3524:	8e 8f       	std	Y+30, r24	; 0x1e
    3526:	8e 8d       	ldd	r24, Y+30	; 0x1e
    3528:	18 16       	cp	r1, r24
    352a:	84 f3       	brlt	.-32     	; 0x350c <prvUnlockQueue+0x18>
    352c:	8f ef       	ldi	r24, 0xFF	; 255
    352e:	8e 8f       	std	Y+30, r24	; 0x1e
    3530:	0f 90       	pop	r0
    3532:	0f be       	out	0x3f, r0	; 63
    3534:	0f b6       	in	r0, 0x3f	; 63
    3536:	f8 94       	cli
    3538:	0f 92       	push	r0
    353a:	8e 01       	movw	r16, r28
    353c:	08 5f       	subi	r16, 0xF8	; 248
    353e:	1f 4f       	sbci	r17, 0xFF	; 255
    3540:	0d c0       	rjmp	.+26     	; 0x355c <prvUnlockQueue+0x68>
    3542:	88 85       	ldd	r24, Y+8	; 0x08
    3544:	88 23       	and	r24, r24
    3546:	69 f0       	breq	.+26     	; 0x3562 <prvUnlockQueue+0x6e>
    3548:	c8 01       	movw	r24, r16
    354a:	0e 94 3a 1d 	call	0x3a74	; 0x3a74 <xTaskRemoveFromEventList>
    354e:	88 23       	and	r24, r24
    3550:	11 f0       	breq	.+4      	; 0x3556 <prvUnlockQueue+0x62>
    3552:	0e 94 36 1d 	call	0x3a6c	; 0x3a6c <vTaskMissedYield>
    3556:	8d 8d       	ldd	r24, Y+29	; 0x1d
    3558:	81 50       	subi	r24, 0x01	; 1
    355a:	8d 8f       	std	Y+29, r24	; 0x1d
    355c:	8d 8d       	ldd	r24, Y+29	; 0x1d
    355e:	18 16       	cp	r1, r24
    3560:	84 f3       	brlt	.-32     	; 0x3542 <prvUnlockQueue+0x4e>
    3562:	8f ef       	ldi	r24, 0xFF	; 255
    3564:	8d 8f       	std	Y+29, r24	; 0x1d
    3566:	0f 90       	pop	r0
    3568:	0f be       	out	0x3f, r0	; 63
    356a:	df 91       	pop	r29
    356c:	cf 91       	pop	r28
    356e:	1f 91       	pop	r17
    3570:	0f 91       	pop	r16
    3572:	08 95       	ret

00003574 <xQueueGenericReceive>:
    3574:	7f 92       	push	r7
    3576:	8f 92       	push	r8
    3578:	9f 92       	push	r9
    357a:	af 92       	push	r10
    357c:	bf 92       	push	r11
    357e:	cf 92       	push	r12
    3580:	df 92       	push	r13
    3582:	ef 92       	push	r14
    3584:	ff 92       	push	r15
    3586:	0f 93       	push	r16
    3588:	1f 93       	push	r17
    358a:	df 93       	push	r29
    358c:	cf 93       	push	r28
    358e:	00 d0       	rcall	.+0      	; 0x3590 <xQueueGenericReceive+0x1c>
    3590:	00 d0       	rcall	.+0      	; 0x3592 <xQueueGenericReceive+0x1e>
    3592:	0f 92       	push	r0
    3594:	cd b7       	in	r28, 0x3d	; 61
    3596:	de b7       	in	r29, 0x3e	; 62
    3598:	8c 01       	movw	r16, r24
    359a:	96 2e       	mov	r9, r22
    359c:	87 2e       	mov	r8, r23
    359e:	5d 83       	std	Y+5, r21	; 0x05
    35a0:	4c 83       	std	Y+4, r20	; 0x04
    35a2:	72 2e       	mov	r7, r18
    35a4:	91 e1       	ldi	r25, 0x11	; 17
    35a6:	c9 2e       	mov	r12, r25
    35a8:	d1 2c       	mov	r13, r1
    35aa:	c0 0e       	add	r12, r16
    35ac:	d1 1e       	adc	r13, r17
    35ae:	20 e0       	ldi	r18, 0x00	; 0
    35b0:	7e 01       	movw	r14, r28
    35b2:	08 94       	sec
    35b4:	e1 1c       	adc	r14, r1
    35b6:	f1 1c       	adc	r15, r1
    35b8:	84 e0       	ldi	r24, 0x04	; 4
    35ba:	a8 2e       	mov	r10, r24
    35bc:	b1 2c       	mov	r11, r1
    35be:	ac 0e       	add	r10, r28
    35c0:	bd 1e       	adc	r11, r29
    35c2:	01 c0       	rjmp	.+2      	; 0x35c6 <xQueueGenericReceive+0x52>
    35c4:	21 e0       	ldi	r18, 0x01	; 1
    35c6:	0f b6       	in	r0, 0x3f	; 63
    35c8:	f8 94       	cli
    35ca:	0f 92       	push	r0
    35cc:	f8 01       	movw	r30, r16
    35ce:	82 8d       	ldd	r24, Z+26	; 0x1a
    35d0:	88 23       	and	r24, r24
    35d2:	09 f4       	brne	.+2      	; 0x35d6 <xQueueGenericReceive+0x62>
    35d4:	3e c0       	rjmp	.+124    	; 0x3652 <xQueueGenericReceive+0xde>
    35d6:	e6 80       	ldd	r14, Z+6	; 0x06
    35d8:	f7 80       	ldd	r15, Z+7	; 0x07
    35da:	40 81       	ld	r20, Z
    35dc:	51 81       	ldd	r21, Z+1	; 0x01
    35de:	41 15       	cp	r20, r1
    35e0:	51 05       	cpc	r21, r1
    35e2:	b1 f0       	breq	.+44     	; 0x3610 <xQueueGenericReceive+0x9c>
    35e4:	84 8d       	ldd	r24, Z+28	; 0x1c
    35e6:	97 01       	movw	r18, r14
    35e8:	28 0f       	add	r18, r24
    35ea:	31 1d       	adc	r19, r1
    35ec:	37 83       	std	Z+7, r19	; 0x07
    35ee:	26 83       	std	Z+6, r18	; 0x06
    35f0:	82 81       	ldd	r24, Z+2	; 0x02
    35f2:	93 81       	ldd	r25, Z+3	; 0x03
    35f4:	28 17       	cp	r18, r24
    35f6:	39 07       	cpc	r19, r25
    35f8:	10 f0       	brcs	.+4      	; 0x35fe <xQueueGenericReceive+0x8a>
    35fa:	57 83       	std	Z+7, r21	; 0x07
    35fc:	46 83       	std	Z+6, r20	; 0x06
    35fe:	f8 01       	movw	r30, r16
    3600:	44 8d       	ldd	r20, Z+28	; 0x1c
    3602:	66 81       	ldd	r22, Z+6	; 0x06
    3604:	77 81       	ldd	r23, Z+7	; 0x07
    3606:	89 2d       	mov	r24, r9
    3608:	98 2d       	mov	r25, r8
    360a:	50 e0       	ldi	r21, 0x00	; 0
    360c:	0e 94 6f 22 	call	0x44de	; 0x44de <memcpy>
    3610:	77 20       	and	r7, r7
    3612:	71 f4       	brne	.+28     	; 0x3630 <xQueueGenericReceive+0xbc>
    3614:	f8 01       	movw	r30, r16
    3616:	82 8d       	ldd	r24, Z+26	; 0x1a
    3618:	81 50       	subi	r24, 0x01	; 1
    361a:	82 8f       	std	Z+26, r24	; 0x1a
    361c:	80 85       	ldd	r24, Z+8	; 0x08
    361e:	88 23       	and	r24, r24
    3620:	a1 f0       	breq	.+40     	; 0x364a <xQueueGenericReceive+0xd6>
    3622:	c8 01       	movw	r24, r16
    3624:	08 96       	adiw	r24, 0x08	; 8
    3626:	0e 94 3a 1d 	call	0x3a74	; 0x3a74 <xTaskRemoveFromEventList>
    362a:	81 30       	cpi	r24, 0x01	; 1
    362c:	71 f4       	brne	.+28     	; 0x364a <xQueueGenericReceive+0xd6>
    362e:	0b c0       	rjmp	.+22     	; 0x3646 <xQueueGenericReceive+0xd2>
    3630:	f8 01       	movw	r30, r16
    3632:	f7 82       	std	Z+7, r15	; 0x07
    3634:	e6 82       	std	Z+6, r14	; 0x06
    3636:	81 89       	ldd	r24, Z+17	; 0x11
    3638:	88 23       	and	r24, r24
    363a:	39 f0       	breq	.+14     	; 0x364a <xQueueGenericReceive+0xd6>
    363c:	c6 01       	movw	r24, r12
    363e:	0e 94 3a 1d 	call	0x3a74	; 0x3a74 <xTaskRemoveFromEventList>
    3642:	88 23       	and	r24, r24
    3644:	11 f0       	breq	.+4      	; 0x364a <xQueueGenericReceive+0xd6>
    3646:	0e 94 4f 19 	call	0x329e	; 0x329e <vPortYield>
    364a:	0f 90       	pop	r0
    364c:	0f be       	out	0x3f, r0	; 63
    364e:	81 e0       	ldi	r24, 0x01	; 1
    3650:	4a c0       	rjmp	.+148    	; 0x36e6 <xQueueGenericReceive+0x172>
    3652:	8c 81       	ldd	r24, Y+4	; 0x04
    3654:	9d 81       	ldd	r25, Y+5	; 0x05
    3656:	89 2b       	or	r24, r25
    3658:	19 f4       	brne	.+6      	; 0x3660 <xQueueGenericReceive+0xec>
    365a:	0f 90       	pop	r0
    365c:	0f be       	out	0x3f, r0	; 63
    365e:	42 c0       	rjmp	.+132    	; 0x36e4 <xQueueGenericReceive+0x170>
    3660:	22 23       	and	r18, r18
    3662:	19 f4       	brne	.+6      	; 0x366a <xQueueGenericReceive+0xf6>
    3664:	c7 01       	movw	r24, r14
    3666:	0e 94 f1 1c 	call	0x39e2	; 0x39e2 <vTaskSetTimeOutState>
    366a:	0f 90       	pop	r0
    366c:	0f be       	out	0x3f, r0	; 63
    366e:	0e 94 95 1c 	call	0x392a	; 0x392a <vTaskSuspendAll>
    3672:	0f b6       	in	r0, 0x3f	; 63
    3674:	f8 94       	cli
    3676:	0f 92       	push	r0
    3678:	f8 01       	movw	r30, r16
    367a:	85 8d       	ldd	r24, Z+29	; 0x1d
    367c:	8f 3f       	cpi	r24, 0xFF	; 255
    367e:	09 f4       	brne	.+2      	; 0x3682 <xQueueGenericReceive+0x10e>
    3680:	15 8e       	std	Z+29, r1	; 0x1d
    3682:	f8 01       	movw	r30, r16
    3684:	86 8d       	ldd	r24, Z+30	; 0x1e
    3686:	8f 3f       	cpi	r24, 0xFF	; 255
    3688:	09 f4       	brne	.+2      	; 0x368c <xQueueGenericReceive+0x118>
    368a:	16 8e       	std	Z+30, r1	; 0x1e
    368c:	0f 90       	pop	r0
    368e:	0f be       	out	0x3f, r0	; 63
    3690:	c7 01       	movw	r24, r14
    3692:	b5 01       	movw	r22, r10
    3694:	0e 94 fc 1c 	call	0x39f8	; 0x39f8 <xTaskCheckForTimeOut>
    3698:	88 23       	and	r24, r24
    369a:	f9 f4       	brne	.+62     	; 0x36da <xQueueGenericReceive+0x166>
    369c:	0f b6       	in	r0, 0x3f	; 63
    369e:	f8 94       	cli
    36a0:	0f 92       	push	r0
    36a2:	f8 01       	movw	r30, r16
    36a4:	82 8d       	ldd	r24, Z+26	; 0x1a
    36a6:	0f 90       	pop	r0
    36a8:	0f be       	out	0x3f, r0	; 63
    36aa:	88 23       	and	r24, r24
    36ac:	81 f4       	brne	.+32     	; 0x36ce <xQueueGenericReceive+0x15a>
    36ae:	6c 81       	ldd	r22, Y+4	; 0x04
    36b0:	7d 81       	ldd	r23, Y+5	; 0x05
    36b2:	c6 01       	movw	r24, r12
    36b4:	0e 94 54 1e 	call	0x3ca8	; 0x3ca8 <vTaskPlaceOnEventList>
    36b8:	c8 01       	movw	r24, r16
    36ba:	0e 94 7a 1a 	call	0x34f4	; 0x34f4 <prvUnlockQueue>
    36be:	0e 94 71 1e 	call	0x3ce2	; 0x3ce2 <xTaskResumeAll>
    36c2:	88 23       	and	r24, r24
    36c4:	09 f0       	breq	.+2      	; 0x36c8 <xQueueGenericReceive+0x154>
    36c6:	7e cf       	rjmp	.-260    	; 0x35c4 <xQueueGenericReceive+0x50>
    36c8:	0e 94 4f 19 	call	0x329e	; 0x329e <vPortYield>
    36cc:	7b cf       	rjmp	.-266    	; 0x35c4 <xQueueGenericReceive+0x50>
    36ce:	c8 01       	movw	r24, r16
    36d0:	0e 94 7a 1a 	call	0x34f4	; 0x34f4 <prvUnlockQueue>
    36d4:	0e 94 71 1e 	call	0x3ce2	; 0x3ce2 <xTaskResumeAll>
    36d8:	75 cf       	rjmp	.-278    	; 0x35c4 <xQueueGenericReceive+0x50>
    36da:	c8 01       	movw	r24, r16
    36dc:	0e 94 7a 1a 	call	0x34f4	; 0x34f4 <prvUnlockQueue>
    36e0:	0e 94 71 1e 	call	0x3ce2	; 0x3ce2 <xTaskResumeAll>
    36e4:	80 e0       	ldi	r24, 0x00	; 0
    36e6:	0f 90       	pop	r0
    36e8:	0f 90       	pop	r0
    36ea:	0f 90       	pop	r0
    36ec:	0f 90       	pop	r0
    36ee:	0f 90       	pop	r0
    36f0:	cf 91       	pop	r28
    36f2:	df 91       	pop	r29
    36f4:	1f 91       	pop	r17
    36f6:	0f 91       	pop	r16
    36f8:	ff 90       	pop	r15
    36fa:	ef 90       	pop	r14
    36fc:	df 90       	pop	r13
    36fe:	cf 90       	pop	r12
    3700:	bf 90       	pop	r11
    3702:	af 90       	pop	r10
    3704:	9f 90       	pop	r9
    3706:	8f 90       	pop	r8
    3708:	7f 90       	pop	r7
    370a:	08 95       	ret

0000370c <xQueueGenericSend>:
    370c:	7f 92       	push	r7
    370e:	8f 92       	push	r8
    3710:	9f 92       	push	r9
    3712:	af 92       	push	r10
    3714:	bf 92       	push	r11
    3716:	cf 92       	push	r12
    3718:	df 92       	push	r13
    371a:	ef 92       	push	r14
    371c:	ff 92       	push	r15
    371e:	0f 93       	push	r16
    3720:	1f 93       	push	r17
    3722:	df 93       	push	r29
    3724:	cf 93       	push	r28
    3726:	00 d0       	rcall	.+0      	; 0x3728 <xQueueGenericSend+0x1c>
    3728:	00 d0       	rcall	.+0      	; 0x372a <xQueueGenericSend+0x1e>
    372a:	0f 92       	push	r0
    372c:	cd b7       	in	r28, 0x3d	; 61
    372e:	de b7       	in	r29, 0x3e	; 62
    3730:	8c 01       	movw	r16, r24
    3732:	6b 01       	movw	r12, r22
    3734:	5d 83       	std	Y+5, r21	; 0x05
    3736:	4c 83       	std	Y+4, r20	; 0x04
    3738:	72 2e       	mov	r7, r18
    373a:	48 e0       	ldi	r20, 0x08	; 8
    373c:	e4 2e       	mov	r14, r20
    373e:	f1 2c       	mov	r15, r1
    3740:	e8 0e       	add	r14, r24
    3742:	f9 1e       	adc	r15, r25
    3744:	20 e0       	ldi	r18, 0x00	; 0
    3746:	5e 01       	movw	r10, r28
    3748:	08 94       	sec
    374a:	a1 1c       	adc	r10, r1
    374c:	b1 1c       	adc	r11, r1
    374e:	34 e0       	ldi	r19, 0x04	; 4
    3750:	83 2e       	mov	r8, r19
    3752:	91 2c       	mov	r9, r1
    3754:	8c 0e       	add	r8, r28
    3756:	9d 1e       	adc	r9, r29
    3758:	01 c0       	rjmp	.+2      	; 0x375c <xQueueGenericSend+0x50>
    375a:	21 e0       	ldi	r18, 0x01	; 1
    375c:	0f b6       	in	r0, 0x3f	; 63
    375e:	f8 94       	cli
    3760:	0f 92       	push	r0
    3762:	f8 01       	movw	r30, r16
    3764:	92 8d       	ldd	r25, Z+26	; 0x1a
    3766:	83 8d       	ldd	r24, Z+27	; 0x1b
    3768:	98 17       	cp	r25, r24
    376a:	a8 f4       	brcc	.+42     	; 0x3796 <xQueueGenericSend+0x8a>
    376c:	c8 01       	movw	r24, r16
    376e:	b6 01       	movw	r22, r12
    3770:	47 2d       	mov	r20, r7
    3772:	0e 94 11 1a 	call	0x3422	; 0x3422 <prvCopyDataToQueue>
    3776:	f8 01       	movw	r30, r16
    3778:	81 89       	ldd	r24, Z+17	; 0x11
    377a:	88 23       	and	r24, r24
    377c:	41 f0       	breq	.+16     	; 0x378e <xQueueGenericSend+0x82>
    377e:	c8 01       	movw	r24, r16
    3780:	41 96       	adiw	r24, 0x11	; 17
    3782:	0e 94 3a 1d 	call	0x3a74	; 0x3a74 <xTaskRemoveFromEventList>
    3786:	81 30       	cpi	r24, 0x01	; 1
    3788:	11 f4       	brne	.+4      	; 0x378e <xQueueGenericSend+0x82>
    378a:	0e 94 4f 19 	call	0x329e	; 0x329e <vPortYield>
    378e:	0f 90       	pop	r0
    3790:	0f be       	out	0x3f, r0	; 63
    3792:	81 e0       	ldi	r24, 0x01	; 1
    3794:	4c c0       	rjmp	.+152    	; 0x382e <xQueueGenericSend+0x122>
    3796:	8c 81       	ldd	r24, Y+4	; 0x04
    3798:	9d 81       	ldd	r25, Y+5	; 0x05
    379a:	89 2b       	or	r24, r25
    379c:	19 f4       	brne	.+6      	; 0x37a4 <xQueueGenericSend+0x98>
    379e:	0f 90       	pop	r0
    37a0:	0f be       	out	0x3f, r0	; 63
    37a2:	44 c0       	rjmp	.+136    	; 0x382c <xQueueGenericSend+0x120>
    37a4:	22 23       	and	r18, r18
    37a6:	19 f4       	brne	.+6      	; 0x37ae <xQueueGenericSend+0xa2>
    37a8:	c5 01       	movw	r24, r10
    37aa:	0e 94 f1 1c 	call	0x39e2	; 0x39e2 <vTaskSetTimeOutState>
    37ae:	0f 90       	pop	r0
    37b0:	0f be       	out	0x3f, r0	; 63
    37b2:	0e 94 95 1c 	call	0x392a	; 0x392a <vTaskSuspendAll>
    37b6:	0f b6       	in	r0, 0x3f	; 63
    37b8:	f8 94       	cli
    37ba:	0f 92       	push	r0
    37bc:	f8 01       	movw	r30, r16
    37be:	85 8d       	ldd	r24, Z+29	; 0x1d
    37c0:	8f 3f       	cpi	r24, 0xFF	; 255
    37c2:	09 f4       	brne	.+2      	; 0x37c6 <xQueueGenericSend+0xba>
    37c4:	15 8e       	std	Z+29, r1	; 0x1d
    37c6:	f8 01       	movw	r30, r16
    37c8:	86 8d       	ldd	r24, Z+30	; 0x1e
    37ca:	8f 3f       	cpi	r24, 0xFF	; 255
    37cc:	09 f4       	brne	.+2      	; 0x37d0 <xQueueGenericSend+0xc4>
    37ce:	16 8e       	std	Z+30, r1	; 0x1e
    37d0:	0f 90       	pop	r0
    37d2:	0f be       	out	0x3f, r0	; 63
    37d4:	c5 01       	movw	r24, r10
    37d6:	b4 01       	movw	r22, r8
    37d8:	0e 94 fc 1c 	call	0x39f8	; 0x39f8 <xTaskCheckForTimeOut>
    37dc:	88 23       	and	r24, r24
    37de:	09 f5       	brne	.+66     	; 0x3822 <xQueueGenericSend+0x116>
    37e0:	0f b6       	in	r0, 0x3f	; 63
    37e2:	f8 94       	cli
    37e4:	0f 92       	push	r0
    37e6:	f8 01       	movw	r30, r16
    37e8:	92 8d       	ldd	r25, Z+26	; 0x1a
    37ea:	0f 90       	pop	r0
    37ec:	0f be       	out	0x3f, r0	; 63
    37ee:	f8 01       	movw	r30, r16
    37f0:	83 8d       	ldd	r24, Z+27	; 0x1b
    37f2:	98 17       	cp	r25, r24
    37f4:	81 f4       	brne	.+32     	; 0x3816 <xQueueGenericSend+0x10a>
    37f6:	6c 81       	ldd	r22, Y+4	; 0x04
    37f8:	7d 81       	ldd	r23, Y+5	; 0x05
    37fa:	c7 01       	movw	r24, r14
    37fc:	0e 94 54 1e 	call	0x3ca8	; 0x3ca8 <vTaskPlaceOnEventList>
    3800:	c8 01       	movw	r24, r16
    3802:	0e 94 7a 1a 	call	0x34f4	; 0x34f4 <prvUnlockQueue>
    3806:	0e 94 71 1e 	call	0x3ce2	; 0x3ce2 <xTaskResumeAll>
    380a:	88 23       	and	r24, r24
    380c:	09 f0       	breq	.+2      	; 0x3810 <xQueueGenericSend+0x104>
    380e:	a5 cf       	rjmp	.-182    	; 0x375a <xQueueGenericSend+0x4e>
    3810:	0e 94 4f 19 	call	0x329e	; 0x329e <vPortYield>
    3814:	a2 cf       	rjmp	.-188    	; 0x375a <xQueueGenericSend+0x4e>
    3816:	c8 01       	movw	r24, r16
    3818:	0e 94 7a 1a 	call	0x34f4	; 0x34f4 <prvUnlockQueue>
    381c:	0e 94 71 1e 	call	0x3ce2	; 0x3ce2 <xTaskResumeAll>
    3820:	9c cf       	rjmp	.-200    	; 0x375a <xQueueGenericSend+0x4e>
    3822:	c8 01       	movw	r24, r16
    3824:	0e 94 7a 1a 	call	0x34f4	; 0x34f4 <prvUnlockQueue>
    3828:	0e 94 71 1e 	call	0x3ce2	; 0x3ce2 <xTaskResumeAll>
    382c:	80 e0       	ldi	r24, 0x00	; 0
    382e:	0f 90       	pop	r0
    3830:	0f 90       	pop	r0
    3832:	0f 90       	pop	r0
    3834:	0f 90       	pop	r0
    3836:	0f 90       	pop	r0
    3838:	cf 91       	pop	r28
    383a:	df 91       	pop	r29
    383c:	1f 91       	pop	r17
    383e:	0f 91       	pop	r16
    3840:	ff 90       	pop	r15
    3842:	ef 90       	pop	r14
    3844:	df 90       	pop	r13
    3846:	cf 90       	pop	r12
    3848:	bf 90       	pop	r11
    384a:	af 90       	pop	r10
    384c:	9f 90       	pop	r9
    384e:	8f 90       	pop	r8
    3850:	7f 90       	pop	r7
    3852:	08 95       	ret

00003854 <xQueueCreate>:
    3854:	af 92       	push	r10
    3856:	bf 92       	push	r11
    3858:	cf 92       	push	r12
    385a:	df 92       	push	r13
    385c:	ef 92       	push	r14
    385e:	ff 92       	push	r15
    3860:	0f 93       	push	r16
    3862:	1f 93       	push	r17
    3864:	cf 93       	push	r28
    3866:	df 93       	push	r29
    3868:	b8 2e       	mov	r11, r24
    386a:	a6 2e       	mov	r10, r22
    386c:	88 23       	and	r24, r24
    386e:	09 f4       	brne	.+2      	; 0x3872 <xQueueCreate+0x1e>
    3870:	42 c0       	rjmp	.+132    	; 0x38f6 <xQueueCreate+0xa2>
    3872:	8f e1       	ldi	r24, 0x1F	; 31
    3874:	90 e0       	ldi	r25, 0x00	; 0
    3876:	0e 94 b2 17 	call	0x2f64	; 0x2f64 <pvPortMalloc>
    387a:	ec 01       	movw	r28, r24
    387c:	00 97       	sbiw	r24, 0x00	; 0
    387e:	d9 f1       	breq	.+118    	; 0x38f6 <xQueueCreate+0xa2>
    3880:	eb 2c       	mov	r14, r11
    3882:	ff 24       	eor	r15, r15
    3884:	ca 2c       	mov	r12, r10
    3886:	dd 24       	eor	r13, r13
    3888:	ce 9c       	mul	r12, r14
    388a:	80 01       	movw	r16, r0
    388c:	cf 9c       	mul	r12, r15
    388e:	10 0d       	add	r17, r0
    3890:	de 9c       	mul	r13, r14
    3892:	10 0d       	add	r17, r0
    3894:	11 24       	eor	r1, r1
    3896:	c8 01       	movw	r24, r16
    3898:	01 96       	adiw	r24, 0x01	; 1
    389a:	0e 94 b2 17 	call	0x2f64	; 0x2f64 <pvPortMalloc>
    389e:	9c 01       	movw	r18, r24
    38a0:	99 83       	std	Y+1, r25	; 0x01
    38a2:	88 83       	st	Y, r24
    38a4:	00 97       	sbiw	r24, 0x00	; 0
    38a6:	21 f1       	breq	.+72     	; 0x38f0 <xQueueCreate+0x9c>
    38a8:	08 0f       	add	r16, r24
    38aa:	19 1f       	adc	r17, r25
    38ac:	1b 83       	std	Y+3, r17	; 0x03
    38ae:	0a 83       	std	Y+2, r16	; 0x02
    38b0:	1a 8e       	std	Y+26, r1	; 0x1a
    38b2:	9d 83       	std	Y+5, r25	; 0x05
    38b4:	8c 83       	std	Y+4, r24	; 0x04
    38b6:	08 94       	sec
    38b8:	e1 08       	sbc	r14, r1
    38ba:	f1 08       	sbc	r15, r1
    38bc:	ec 9c       	mul	r14, r12
    38be:	c0 01       	movw	r24, r0
    38c0:	ed 9c       	mul	r14, r13
    38c2:	90 0d       	add	r25, r0
    38c4:	fc 9c       	mul	r15, r12
    38c6:	90 0d       	add	r25, r0
    38c8:	11 24       	eor	r1, r1
    38ca:	28 0f       	add	r18, r24
    38cc:	39 1f       	adc	r19, r25
    38ce:	3f 83       	std	Y+7, r19	; 0x07
    38d0:	2e 83       	std	Y+6, r18	; 0x06
    38d2:	bb 8e       	std	Y+27, r11	; 0x1b
    38d4:	ac 8e       	std	Y+28, r10	; 0x1c
    38d6:	8f ef       	ldi	r24, 0xFF	; 255
    38d8:	8d 8f       	std	Y+29, r24	; 0x1d
    38da:	8e 8f       	std	Y+30, r24	; 0x1e
    38dc:	ce 01       	movw	r24, r28
    38de:	08 96       	adiw	r24, 0x08	; 8
    38e0:	0e 94 d9 17 	call	0x2fb2	; 0x2fb2 <vListInitialise>
    38e4:	ce 01       	movw	r24, r28
    38e6:	41 96       	adiw	r24, 0x11	; 17
    38e8:	0e 94 d9 17 	call	0x2fb2	; 0x2fb2 <vListInitialise>
    38ec:	9e 01       	movw	r18, r28
    38ee:	05 c0       	rjmp	.+10     	; 0x38fa <xQueueCreate+0xa6>
    38f0:	ce 01       	movw	r24, r28
    38f2:	0e 94 a2 17 	call	0x2f44	; 0x2f44 <vPortFree>
    38f6:	20 e0       	ldi	r18, 0x00	; 0
    38f8:	30 e0       	ldi	r19, 0x00	; 0
    38fa:	c9 01       	movw	r24, r18
    38fc:	df 91       	pop	r29
    38fe:	cf 91       	pop	r28
    3900:	1f 91       	pop	r17
    3902:	0f 91       	pop	r16
    3904:	ff 90       	pop	r15
    3906:	ef 90       	pop	r14
    3908:	df 90       	pop	r13
    390a:	cf 90       	pop	r12
    390c:	bf 90       	pop	r11
    390e:	af 90       	pop	r10
    3910:	08 95       	ret

00003912 <xQueueCreateCountingSemaphore>:
    3912:	1f 93       	push	r17
    3914:	16 2f       	mov	r17, r22
    3916:	60 e0       	ldi	r22, 0x00	; 0
    3918:	0e 94 2a 1c 	call	0x3854	; 0x3854 <xQueueCreate>
    391c:	fc 01       	movw	r30, r24
    391e:	00 97       	sbiw	r24, 0x00	; 0
    3920:	09 f0       	breq	.+2      	; 0x3924 <xQueueCreateCountingSemaphore+0x12>
    3922:	12 8f       	std	Z+26, r17	; 0x1a
    3924:	cf 01       	movw	r24, r30
    3926:	1f 91       	pop	r17
    3928:	08 95       	ret

0000392a <vTaskSuspendAll>:
    392a:	80 91 52 05 	lds	r24, 0x0552
    392e:	8f 5f       	subi	r24, 0xFF	; 255
    3930:	80 93 52 05 	sts	0x0552, r24
    3934:	08 95       	ret

00003936 <xTaskGetTickCount>:
    3936:	0f b6       	in	r0, 0x3f	; 63
    3938:	f8 94       	cli
    393a:	0f 92       	push	r0
    393c:	20 91 50 05 	lds	r18, 0x0550
    3940:	30 91 51 05 	lds	r19, 0x0551
    3944:	0f 90       	pop	r0
    3946:	0f be       	out	0x3f, r0	; 63
    3948:	c9 01       	movw	r24, r18
    394a:	08 95       	ret

0000394c <xTaskGetTickCountFromISR>:
    394c:	20 91 50 05 	lds	r18, 0x0550
    3950:	30 91 51 05 	lds	r19, 0x0551
    3954:	c9 01       	movw	r24, r18
    3956:	08 95       	ret

00003958 <uxTaskGetNumberOfTasks>:
    3958:	80 91 55 05 	lds	r24, 0x0555
    395c:	08 95       	ret

0000395e <vTaskSwitchContext>:
    395e:	80 91 52 05 	lds	r24, 0x0552
    3962:	88 23       	and	r24, r24
    3964:	51 f0       	breq	.+20     	; 0x397a <vTaskSwitchContext+0x1c>
    3966:	81 e0       	ldi	r24, 0x01	; 1
    3968:	80 93 4e 05 	sts	0x054E, r24
    396c:	08 95       	ret
    396e:	80 91 53 05 	lds	r24, 0x0553
    3972:	81 50       	subi	r24, 0x01	; 1
    3974:	80 93 53 05 	sts	0x0553, r24
    3978:	01 c0       	rjmp	.+2      	; 0x397c <vTaskSwitchContext+0x1e>
    397a:	99 e0       	ldi	r25, 0x09	; 9
    397c:	e0 91 53 05 	lds	r30, 0x0553
    3980:	e9 9f       	mul	r30, r25
    3982:	f0 01       	movw	r30, r0
    3984:	11 24       	eor	r1, r1
    3986:	e6 5a       	subi	r30, 0xA6	; 166
    3988:	fa 4f       	sbci	r31, 0xFA	; 250
    398a:	80 81       	ld	r24, Z
    398c:	88 23       	and	r24, r24
    398e:	79 f3       	breq	.-34     	; 0x396e <vTaskSwitchContext+0x10>
    3990:	90 91 53 05 	lds	r25, 0x0553
    3994:	89 e0       	ldi	r24, 0x09	; 9
    3996:	98 9f       	mul	r25, r24
    3998:	d0 01       	movw	r26, r0
    399a:	11 24       	eor	r1, r1
    399c:	a6 5a       	subi	r26, 0xA6	; 166
    399e:	ba 4f       	sbci	r27, 0xFA	; 250
    39a0:	11 96       	adiw	r26, 0x01	; 1
    39a2:	ed 91       	ld	r30, X+
    39a4:	fc 91       	ld	r31, X
    39a6:	12 97       	sbiw	r26, 0x02	; 2
    39a8:	02 80       	ldd	r0, Z+2	; 0x02
    39aa:	f3 81       	ldd	r31, Z+3	; 0x03
    39ac:	e0 2d       	mov	r30, r0
    39ae:	12 96       	adiw	r26, 0x02	; 2
    39b0:	fc 93       	st	X, r31
    39b2:	ee 93       	st	-X, r30
    39b4:	11 97       	sbiw	r26, 0x01	; 1
    39b6:	cd 01       	movw	r24, r26
    39b8:	03 96       	adiw	r24, 0x03	; 3
    39ba:	e8 17       	cp	r30, r24
    39bc:	f9 07       	cpc	r31, r25
    39be:	31 f4       	brne	.+12     	; 0x39cc <vTaskSwitchContext+0x6e>
    39c0:	82 81       	ldd	r24, Z+2	; 0x02
    39c2:	93 81       	ldd	r25, Z+3	; 0x03
    39c4:	12 96       	adiw	r26, 0x02	; 2
    39c6:	9c 93       	st	X, r25
    39c8:	8e 93       	st	-X, r24
    39ca:	11 97       	sbiw	r26, 0x01	; 1
    39cc:	11 96       	adiw	r26, 0x01	; 1
    39ce:	ed 91       	ld	r30, X+
    39d0:	fc 91       	ld	r31, X
    39d2:	12 97       	sbiw	r26, 0x02	; 2
    39d4:	86 81       	ldd	r24, Z+6	; 0x06
    39d6:	97 81       	ldd	r25, Z+7	; 0x07
    39d8:	90 93 4d 05 	sts	0x054D, r25
    39dc:	80 93 4c 05 	sts	0x054C, r24
    39e0:	08 95       	ret

000039e2 <vTaskSetTimeOutState>:
    39e2:	fc 01       	movw	r30, r24
    39e4:	80 91 4f 05 	lds	r24, 0x054F
    39e8:	80 83       	st	Z, r24
    39ea:	80 91 50 05 	lds	r24, 0x0550
    39ee:	90 91 51 05 	lds	r25, 0x0551
    39f2:	92 83       	std	Z+2, r25	; 0x02
    39f4:	81 83       	std	Z+1, r24	; 0x01
    39f6:	08 95       	ret

000039f8 <xTaskCheckForTimeOut>:
    39f8:	fc 01       	movw	r30, r24
    39fa:	db 01       	movw	r26, r22
    39fc:	0f b6       	in	r0, 0x3f	; 63
    39fe:	f8 94       	cli
    3a00:	0f 92       	push	r0
    3a02:	90 91 4f 05 	lds	r25, 0x054F
    3a06:	80 81       	ld	r24, Z
    3a08:	98 17       	cp	r25, r24
    3a0a:	49 f0       	breq	.+18     	; 0x3a1e <xTaskCheckForTimeOut+0x26>
    3a0c:	20 91 50 05 	lds	r18, 0x0550
    3a10:	30 91 51 05 	lds	r19, 0x0551
    3a14:	81 81       	ldd	r24, Z+1	; 0x01
    3a16:	92 81       	ldd	r25, Z+2	; 0x02
    3a18:	28 17       	cp	r18, r24
    3a1a:	39 07       	cpc	r19, r25
    3a1c:	18 f5       	brcc	.+70     	; 0x3a64 <xTaskCheckForTimeOut+0x6c>
    3a1e:	80 91 50 05 	lds	r24, 0x0550
    3a22:	90 91 51 05 	lds	r25, 0x0551
    3a26:	21 81       	ldd	r18, Z+1	; 0x01
    3a28:	32 81       	ldd	r19, Z+2	; 0x02
    3a2a:	4d 91       	ld	r20, X+
    3a2c:	5c 91       	ld	r21, X
    3a2e:	11 97       	sbiw	r26, 0x01	; 1
    3a30:	82 1b       	sub	r24, r18
    3a32:	93 0b       	sbc	r25, r19
    3a34:	84 17       	cp	r24, r20
    3a36:	95 07       	cpc	r25, r21
    3a38:	a8 f4       	brcc	.+42     	; 0x3a64 <xTaskCheckForTimeOut+0x6c>
    3a3a:	80 91 50 05 	lds	r24, 0x0550
    3a3e:	90 91 51 05 	lds	r25, 0x0551
    3a42:	28 1b       	sub	r18, r24
    3a44:	39 0b       	sbc	r19, r25
    3a46:	24 0f       	add	r18, r20
    3a48:	35 1f       	adc	r19, r21
    3a4a:	2d 93       	st	X+, r18
    3a4c:	3c 93       	st	X, r19
    3a4e:	80 91 4f 05 	lds	r24, 0x054F
    3a52:	80 83       	st	Z, r24
    3a54:	80 91 50 05 	lds	r24, 0x0550
    3a58:	90 91 51 05 	lds	r25, 0x0551
    3a5c:	92 83       	std	Z+2, r25	; 0x02
    3a5e:	81 83       	std	Z+1, r24	; 0x01
    3a60:	80 e0       	ldi	r24, 0x00	; 0
    3a62:	01 c0       	rjmp	.+2      	; 0x3a66 <xTaskCheckForTimeOut+0x6e>
    3a64:	81 e0       	ldi	r24, 0x01	; 1
    3a66:	0f 90       	pop	r0
    3a68:	0f be       	out	0x3f, r0	; 63
    3a6a:	08 95       	ret

00003a6c <vTaskMissedYield>:
    3a6c:	81 e0       	ldi	r24, 0x01	; 1
    3a6e:	80 93 4e 05 	sts	0x054E, r24
    3a72:	08 95       	ret

00003a74 <xTaskRemoveFromEventList>:
    3a74:	0f 93       	push	r16
    3a76:	1f 93       	push	r17
    3a78:	cf 93       	push	r28
    3a7a:	df 93       	push	r29
    3a7c:	fc 01       	movw	r30, r24
    3a7e:	05 80       	ldd	r0, Z+5	; 0x05
    3a80:	f6 81       	ldd	r31, Z+6	; 0x06
    3a82:	e0 2d       	mov	r30, r0
    3a84:	06 81       	ldd	r16, Z+6	; 0x06
    3a86:	17 81       	ldd	r17, Z+7	; 0x07
    3a88:	e8 01       	movw	r28, r16
    3a8a:	2c 96       	adiw	r28, 0x0c	; 12
    3a8c:	ce 01       	movw	r24, r28
    3a8e:	0e 94 4b 18 	call	0x3096	; 0x3096 <vListRemove>
    3a92:	80 91 52 05 	lds	r24, 0x0552
    3a96:	88 23       	and	r24, r24
    3a98:	a9 f4       	brne	.+42     	; 0x3ac4 <xTaskRemoveFromEventList+0x50>
    3a9a:	e8 01       	movw	r28, r16
    3a9c:	22 96       	adiw	r28, 0x02	; 2
    3a9e:	ce 01       	movw	r24, r28
    3aa0:	0e 94 4b 18 	call	0x3096	; 0x3096 <vListRemove>
    3aa4:	d8 01       	movw	r26, r16
    3aa6:	56 96       	adiw	r26, 0x16	; 22
    3aa8:	9c 91       	ld	r25, X
    3aaa:	80 91 53 05 	lds	r24, 0x0553
    3aae:	89 17       	cp	r24, r25
    3ab0:	10 f4       	brcc	.+4      	; 0x3ab6 <xTaskRemoveFromEventList+0x42>
    3ab2:	90 93 53 05 	sts	0x0553, r25
    3ab6:	89 e0       	ldi	r24, 0x09	; 9
    3ab8:	98 9f       	mul	r25, r24
    3aba:	c0 01       	movw	r24, r0
    3abc:	11 24       	eor	r1, r1
    3abe:	86 5a       	subi	r24, 0xA6	; 166
    3ac0:	9a 4f       	sbci	r25, 0xFA	; 250
    3ac2:	02 c0       	rjmp	.+4      	; 0x3ac8 <xTaskRemoveFromEventList+0x54>
    3ac4:	8d e9       	ldi	r24, 0x9D	; 157
    3ac6:	95 e0       	ldi	r25, 0x05	; 5
    3ac8:	be 01       	movw	r22, r28
    3aca:	0e 94 ed 17 	call	0x2fda	; 0x2fda <vListInsertEnd>
    3ace:	e0 91 4c 05 	lds	r30, 0x054C
    3ad2:	f0 91 4d 05 	lds	r31, 0x054D
    3ad6:	20 e0       	ldi	r18, 0x00	; 0
    3ad8:	d8 01       	movw	r26, r16
    3ada:	56 96       	adiw	r26, 0x16	; 22
    3adc:	9c 91       	ld	r25, X
    3ade:	86 89       	ldd	r24, Z+22	; 0x16
    3ae0:	98 17       	cp	r25, r24
    3ae2:	08 f0       	brcs	.+2      	; 0x3ae6 <xTaskRemoveFromEventList+0x72>
    3ae4:	21 e0       	ldi	r18, 0x01	; 1
    3ae6:	82 2f       	mov	r24, r18
    3ae8:	df 91       	pop	r29
    3aea:	cf 91       	pop	r28
    3aec:	1f 91       	pop	r17
    3aee:	0f 91       	pop	r16
    3af0:	08 95       	ret

00003af2 <vTaskIncrementTick>:
    3af2:	ff 92       	push	r15
    3af4:	0f 93       	push	r16
    3af6:	1f 93       	push	r17
    3af8:	cf 93       	push	r28
    3afa:	df 93       	push	r29
    3afc:	80 91 52 05 	lds	r24, 0x0552
    3b00:	88 23       	and	r24, r24
    3b02:	09 f0       	breq	.+2      	; 0x3b06 <vTaskIncrementTick+0x14>
    3b04:	8f c0       	rjmp	.+286    	; 0x3c24 <vTaskIncrementTick+0x132>
    3b06:	80 91 50 05 	lds	r24, 0x0550
    3b0a:	90 91 51 05 	lds	r25, 0x0551
    3b0e:	01 96       	adiw	r24, 0x01	; 1
    3b10:	90 93 51 05 	sts	0x0551, r25
    3b14:	80 93 50 05 	sts	0x0550, r24
    3b18:	80 91 50 05 	lds	r24, 0x0550
    3b1c:	90 91 51 05 	lds	r25, 0x0551
    3b20:	89 2b       	or	r24, r25
    3b22:	79 f5       	brne	.+94     	; 0x3b82 <vTaskIncrementTick+0x90>
    3b24:	20 91 99 05 	lds	r18, 0x0599
    3b28:	30 91 9a 05 	lds	r19, 0x059A
    3b2c:	80 91 9b 05 	lds	r24, 0x059B
    3b30:	90 91 9c 05 	lds	r25, 0x059C
    3b34:	90 93 9a 05 	sts	0x059A, r25
    3b38:	80 93 99 05 	sts	0x0599, r24
    3b3c:	30 93 9c 05 	sts	0x059C, r19
    3b40:	20 93 9b 05 	sts	0x059B, r18
    3b44:	80 91 4f 05 	lds	r24, 0x054F
    3b48:	8f 5f       	subi	r24, 0xFF	; 255
    3b4a:	80 93 4f 05 	sts	0x054F, r24
    3b4e:	e0 91 99 05 	lds	r30, 0x0599
    3b52:	f0 91 9a 05 	lds	r31, 0x059A
    3b56:	80 81       	ld	r24, Z
    3b58:	88 23       	and	r24, r24
    3b5a:	19 f4       	brne	.+6      	; 0x3b62 <vTaskIncrementTick+0x70>
    3b5c:	8f ef       	ldi	r24, 0xFF	; 255
    3b5e:	9f ef       	ldi	r25, 0xFF	; 255
    3b60:	0c c0       	rjmp	.+24     	; 0x3b7a <vTaskIncrementTick+0x88>
    3b62:	e0 91 99 05 	lds	r30, 0x0599
    3b66:	f0 91 9a 05 	lds	r31, 0x059A
    3b6a:	05 80       	ldd	r0, Z+5	; 0x05
    3b6c:	f6 81       	ldd	r31, Z+6	; 0x06
    3b6e:	e0 2d       	mov	r30, r0
    3b70:	06 80       	ldd	r0, Z+6	; 0x06
    3b72:	f7 81       	ldd	r31, Z+7	; 0x07
    3b74:	e0 2d       	mov	r30, r0
    3b76:	82 81       	ldd	r24, Z+2	; 0x02
    3b78:	93 81       	ldd	r25, Z+3	; 0x03
    3b7a:	90 93 66 01 	sts	0x0166, r25
    3b7e:	80 93 65 01 	sts	0x0165, r24
    3b82:	20 91 50 05 	lds	r18, 0x0550
    3b86:	30 91 51 05 	lds	r19, 0x0551
    3b8a:	80 91 65 01 	lds	r24, 0x0165
    3b8e:	90 91 66 01 	lds	r25, 0x0166
    3b92:	28 17       	cp	r18, r24
    3b94:	39 07       	cpc	r19, r25
    3b96:	08 f4       	brcc	.+2      	; 0x3b9a <vTaskIncrementTick+0xa8>
    3b98:	4a c0       	rjmp	.+148    	; 0x3c2e <vTaskIncrementTick+0x13c>
    3b9a:	89 e0       	ldi	r24, 0x09	; 9
    3b9c:	f8 2e       	mov	r15, r24
    3b9e:	e0 91 99 05 	lds	r30, 0x0599
    3ba2:	f0 91 9a 05 	lds	r31, 0x059A
    3ba6:	80 81       	ld	r24, Z
    3ba8:	88 23       	and	r24, r24
    3baa:	39 f4       	brne	.+14     	; 0x3bba <vTaskIncrementTick+0xc8>
    3bac:	8f ef       	ldi	r24, 0xFF	; 255
    3bae:	9f ef       	ldi	r25, 0xFF	; 255
    3bb0:	90 93 66 01 	sts	0x0166, r25
    3bb4:	80 93 65 01 	sts	0x0165, r24
    3bb8:	3a c0       	rjmp	.+116    	; 0x3c2e <vTaskIncrementTick+0x13c>
    3bba:	e0 91 99 05 	lds	r30, 0x0599
    3bbe:	f0 91 9a 05 	lds	r31, 0x059A
    3bc2:	05 80       	ldd	r0, Z+5	; 0x05
    3bc4:	f6 81       	ldd	r31, Z+6	; 0x06
    3bc6:	e0 2d       	mov	r30, r0
    3bc8:	c6 81       	ldd	r28, Z+6	; 0x06
    3bca:	d7 81       	ldd	r29, Z+7	; 0x07
    3bcc:	2a 81       	ldd	r18, Y+2	; 0x02
    3bce:	3b 81       	ldd	r19, Y+3	; 0x03
    3bd0:	80 91 50 05 	lds	r24, 0x0550
    3bd4:	90 91 51 05 	lds	r25, 0x0551
    3bd8:	82 17       	cp	r24, r18
    3bda:	93 07       	cpc	r25, r19
    3bdc:	28 f4       	brcc	.+10     	; 0x3be8 <vTaskIncrementTick+0xf6>
    3bde:	30 93 66 01 	sts	0x0166, r19
    3be2:	20 93 65 01 	sts	0x0165, r18
    3be6:	23 c0       	rjmp	.+70     	; 0x3c2e <vTaskIncrementTick+0x13c>
    3be8:	8e 01       	movw	r16, r28
    3bea:	0e 5f       	subi	r16, 0xFE	; 254
    3bec:	1f 4f       	sbci	r17, 0xFF	; 255
    3bee:	c8 01       	movw	r24, r16
    3bf0:	0e 94 4b 18 	call	0x3096	; 0x3096 <vListRemove>
    3bf4:	8c 89       	ldd	r24, Y+20	; 0x14
    3bf6:	9d 89       	ldd	r25, Y+21	; 0x15
    3bf8:	89 2b       	or	r24, r25
    3bfa:	21 f0       	breq	.+8      	; 0x3c04 <vTaskIncrementTick+0x112>
    3bfc:	ce 01       	movw	r24, r28
    3bfe:	0c 96       	adiw	r24, 0x0c	; 12
    3c00:	0e 94 4b 18 	call	0x3096	; 0x3096 <vListRemove>
    3c04:	9e 89       	ldd	r25, Y+22	; 0x16
    3c06:	80 91 53 05 	lds	r24, 0x0553
    3c0a:	89 17       	cp	r24, r25
    3c0c:	10 f4       	brcc	.+4      	; 0x3c12 <vTaskIncrementTick+0x120>
    3c0e:	90 93 53 05 	sts	0x0553, r25
    3c12:	9f 9d       	mul	r25, r15
    3c14:	c0 01       	movw	r24, r0
    3c16:	11 24       	eor	r1, r1
    3c18:	86 5a       	subi	r24, 0xA6	; 166
    3c1a:	9a 4f       	sbci	r25, 0xFA	; 250
    3c1c:	b8 01       	movw	r22, r16
    3c1e:	0e 94 ed 17 	call	0x2fda	; 0x2fda <vListInsertEnd>
    3c22:	bd cf       	rjmp	.-134    	; 0x3b9e <vTaskIncrementTick+0xac>
    3c24:	80 91 54 05 	lds	r24, 0x0554
    3c28:	8f 5f       	subi	r24, 0xFF	; 255
    3c2a:	80 93 54 05 	sts	0x0554, r24
    3c2e:	df 91       	pop	r29
    3c30:	cf 91       	pop	r28
    3c32:	1f 91       	pop	r17
    3c34:	0f 91       	pop	r16
    3c36:	ff 90       	pop	r15
    3c38:	08 95       	ret

00003c3a <prvAddCurrentTaskToDelayedList>:
    3c3a:	cf 93       	push	r28
    3c3c:	df 93       	push	r29
    3c3e:	ec 01       	movw	r28, r24
    3c40:	e0 91 4c 05 	lds	r30, 0x054C
    3c44:	f0 91 4d 05 	lds	r31, 0x054D
    3c48:	93 83       	std	Z+3, r25	; 0x03
    3c4a:	82 83       	std	Z+2, r24	; 0x02
    3c4c:	80 91 50 05 	lds	r24, 0x0550
    3c50:	90 91 51 05 	lds	r25, 0x0551
    3c54:	c8 17       	cp	r28, r24
    3c56:	d9 07       	cpc	r29, r25
    3c58:	68 f4       	brcc	.+26     	; 0x3c74 <prvAddCurrentTaskToDelayedList+0x3a>
    3c5a:	80 91 9b 05 	lds	r24, 0x059B
    3c5e:	90 91 9c 05 	lds	r25, 0x059C
    3c62:	60 91 4c 05 	lds	r22, 0x054C
    3c66:	70 91 4d 05 	lds	r23, 0x054D
    3c6a:	6e 5f       	subi	r22, 0xFE	; 254
    3c6c:	7f 4f       	sbci	r23, 0xFF	; 255
    3c6e:	0e 94 16 18 	call	0x302c	; 0x302c <vListInsert>
    3c72:	17 c0       	rjmp	.+46     	; 0x3ca2 <prvAddCurrentTaskToDelayedList+0x68>
    3c74:	80 91 99 05 	lds	r24, 0x0599
    3c78:	90 91 9a 05 	lds	r25, 0x059A
    3c7c:	60 91 4c 05 	lds	r22, 0x054C
    3c80:	70 91 4d 05 	lds	r23, 0x054D
    3c84:	6e 5f       	subi	r22, 0xFE	; 254
    3c86:	7f 4f       	sbci	r23, 0xFF	; 255
    3c88:	0e 94 16 18 	call	0x302c	; 0x302c <vListInsert>
    3c8c:	80 91 65 01 	lds	r24, 0x0165
    3c90:	90 91 66 01 	lds	r25, 0x0166
    3c94:	c8 17       	cp	r28, r24
    3c96:	d9 07       	cpc	r29, r25
    3c98:	20 f4       	brcc	.+8      	; 0x3ca2 <prvAddCurrentTaskToDelayedList+0x68>
    3c9a:	d0 93 66 01 	sts	0x0166, r29
    3c9e:	c0 93 65 01 	sts	0x0165, r28
    3ca2:	df 91       	pop	r29
    3ca4:	cf 91       	pop	r28
    3ca6:	08 95       	ret

00003ca8 <vTaskPlaceOnEventList>:
    3ca8:	0f 93       	push	r16
    3caa:	1f 93       	push	r17
    3cac:	8b 01       	movw	r16, r22
    3cae:	60 91 4c 05 	lds	r22, 0x054C
    3cb2:	70 91 4d 05 	lds	r23, 0x054D
    3cb6:	64 5f       	subi	r22, 0xF4	; 244
    3cb8:	7f 4f       	sbci	r23, 0xFF	; 255
    3cba:	0e 94 16 18 	call	0x302c	; 0x302c <vListInsert>
    3cbe:	80 91 4c 05 	lds	r24, 0x054C
    3cc2:	90 91 4d 05 	lds	r25, 0x054D
    3cc6:	02 96       	adiw	r24, 0x02	; 2
    3cc8:	0e 94 4b 18 	call	0x3096	; 0x3096 <vListRemove>
    3ccc:	80 91 50 05 	lds	r24, 0x0550
    3cd0:	90 91 51 05 	lds	r25, 0x0551
    3cd4:	80 0f       	add	r24, r16
    3cd6:	91 1f       	adc	r25, r17
    3cd8:	0e 94 1d 1e 	call	0x3c3a	; 0x3c3a <prvAddCurrentTaskToDelayedList>
    3cdc:	1f 91       	pop	r17
    3cde:	0f 91       	pop	r16
    3ce0:	08 95       	ret

00003ce2 <xTaskResumeAll>:
    3ce2:	cf 92       	push	r12
    3ce4:	df 92       	push	r13
    3ce6:	ff 92       	push	r15
    3ce8:	0f 93       	push	r16
    3cea:	1f 93       	push	r17
    3cec:	df 93       	push	r29
    3cee:	cf 93       	push	r28
    3cf0:	0f 92       	push	r0
    3cf2:	cd b7       	in	r28, 0x3d	; 61
    3cf4:	de b7       	in	r29, 0x3e	; 62
    3cf6:	0f b6       	in	r0, 0x3f	; 63
    3cf8:	f8 94       	cli
    3cfa:	0f 92       	push	r0
    3cfc:	80 91 52 05 	lds	r24, 0x0552
    3d00:	81 50       	subi	r24, 0x01	; 1
    3d02:	80 93 52 05 	sts	0x0552, r24
    3d06:	80 91 52 05 	lds	r24, 0x0552
    3d0a:	88 23       	and	r24, r24
    3d0c:	09 f0       	breq	.+2      	; 0x3d10 <xTaskResumeAll+0x2e>
    3d0e:	58 c0       	rjmp	.+176    	; 0x3dc0 <xTaskResumeAll+0xde>
    3d10:	80 91 55 05 	lds	r24, 0x0555
    3d14:	88 23       	and	r24, r24
    3d16:	09 f4       	brne	.+2      	; 0x3d1a <xTaskResumeAll+0x38>
    3d18:	53 c0       	rjmp	.+166    	; 0x3dc0 <xTaskResumeAll+0xde>
    3d1a:	19 82       	std	Y+1, r1	; 0x01
    3d1c:	99 e0       	ldi	r25, 0x09	; 9
    3d1e:	f9 2e       	mov	r15, r25
    3d20:	2d c0       	rjmp	.+90     	; 0x3d7c <xTaskResumeAll+0x9a>
    3d22:	e0 91 a2 05 	lds	r30, 0x05A2
    3d26:	f0 91 a3 05 	lds	r31, 0x05A3
    3d2a:	c6 80       	ldd	r12, Z+6	; 0x06
    3d2c:	d7 80       	ldd	r13, Z+7	; 0x07
    3d2e:	c6 01       	movw	r24, r12
    3d30:	0c 96       	adiw	r24, 0x0c	; 12
    3d32:	0e 94 4b 18 	call	0x3096	; 0x3096 <vListRemove>
    3d36:	86 01       	movw	r16, r12
    3d38:	0e 5f       	subi	r16, 0xFE	; 254
    3d3a:	1f 4f       	sbci	r17, 0xFF	; 255
    3d3c:	c8 01       	movw	r24, r16
    3d3e:	0e 94 4b 18 	call	0x3096	; 0x3096 <vListRemove>
    3d42:	d6 01       	movw	r26, r12
    3d44:	56 96       	adiw	r26, 0x16	; 22
    3d46:	9c 91       	ld	r25, X
    3d48:	80 91 53 05 	lds	r24, 0x0553
    3d4c:	89 17       	cp	r24, r25
    3d4e:	10 f4       	brcc	.+4      	; 0x3d54 <xTaskResumeAll+0x72>
    3d50:	90 93 53 05 	sts	0x0553, r25
    3d54:	9f 9d       	mul	r25, r15
    3d56:	c0 01       	movw	r24, r0
    3d58:	11 24       	eor	r1, r1
    3d5a:	86 5a       	subi	r24, 0xA6	; 166
    3d5c:	9a 4f       	sbci	r25, 0xFA	; 250
    3d5e:	b8 01       	movw	r22, r16
    3d60:	0e 94 ed 17 	call	0x2fda	; 0x2fda <vListInsertEnd>
    3d64:	e0 91 4c 05 	lds	r30, 0x054C
    3d68:	f0 91 4d 05 	lds	r31, 0x054D
    3d6c:	d6 01       	movw	r26, r12
    3d6e:	56 96       	adiw	r26, 0x16	; 22
    3d70:	9c 91       	ld	r25, X
    3d72:	86 89       	ldd	r24, Z+22	; 0x16
    3d74:	98 17       	cp	r25, r24
    3d76:	10 f0       	brcs	.+4      	; 0x3d7c <xTaskResumeAll+0x9a>
    3d78:	b1 e0       	ldi	r27, 0x01	; 1
    3d7a:	b9 83       	std	Y+1, r27	; 0x01
    3d7c:	80 91 9d 05 	lds	r24, 0x059D
    3d80:	88 23       	and	r24, r24
    3d82:	79 f6       	brne	.-98     	; 0x3d22 <xTaskResumeAll+0x40>
    3d84:	80 91 54 05 	lds	r24, 0x0554
    3d88:	88 23       	and	r24, r24
    3d8a:	41 f4       	brne	.+16     	; 0x3d9c <xTaskResumeAll+0xba>
    3d8c:	0c c0       	rjmp	.+24     	; 0x3da6 <xTaskResumeAll+0xc4>
    3d8e:	0e 94 79 1d 	call	0x3af2	; 0x3af2 <vTaskIncrementTick>
    3d92:	80 91 54 05 	lds	r24, 0x0554
    3d96:	81 50       	subi	r24, 0x01	; 1
    3d98:	80 93 54 05 	sts	0x0554, r24
    3d9c:	80 91 54 05 	lds	r24, 0x0554
    3da0:	88 23       	and	r24, r24
    3da2:	a9 f7       	brne	.-22     	; 0x3d8e <xTaskResumeAll+0xac>
    3da4:	07 c0       	rjmp	.+14     	; 0x3db4 <xTaskResumeAll+0xd2>
    3da6:	e9 81       	ldd	r30, Y+1	; 0x01
    3da8:	e1 30       	cpi	r30, 0x01	; 1
    3daa:	21 f0       	breq	.+8      	; 0x3db4 <xTaskResumeAll+0xd2>
    3dac:	80 91 4e 05 	lds	r24, 0x054E
    3db0:	81 30       	cpi	r24, 0x01	; 1
    3db2:	31 f4       	brne	.+12     	; 0x3dc0 <xTaskResumeAll+0xde>
    3db4:	10 92 4e 05 	sts	0x054E, r1
    3db8:	0e 94 4f 19 	call	0x329e	; 0x329e <vPortYield>
    3dbc:	81 e0       	ldi	r24, 0x01	; 1
    3dbe:	01 c0       	rjmp	.+2      	; 0x3dc2 <xTaskResumeAll+0xe0>
    3dc0:	80 e0       	ldi	r24, 0x00	; 0
    3dc2:	0f 90       	pop	r0
    3dc4:	0f be       	out	0x3f, r0	; 63
    3dc6:	0f 90       	pop	r0
    3dc8:	cf 91       	pop	r28
    3dca:	df 91       	pop	r29
    3dcc:	1f 91       	pop	r17
    3dce:	0f 91       	pop	r16
    3dd0:	ff 90       	pop	r15
    3dd2:	df 90       	pop	r13
    3dd4:	cf 90       	pop	r12
    3dd6:	08 95       	ret

00003dd8 <vTaskDelay>:
    3dd8:	0f 93       	push	r16
    3dda:	1f 93       	push	r17
    3ddc:	cf 93       	push	r28
    3dde:	df 93       	push	r29
    3de0:	ec 01       	movw	r28, r24
    3de2:	00 97       	sbiw	r24, 0x00	; 0
    3de4:	c9 f0       	breq	.+50     	; 0x3e18 <vTaskDelay+0x40>
    3de6:	80 91 52 05 	lds	r24, 0x0552
    3dea:	8f 5f       	subi	r24, 0xFF	; 255
    3dec:	80 93 52 05 	sts	0x0552, r24
    3df0:	00 91 50 05 	lds	r16, 0x0550
    3df4:	10 91 51 05 	lds	r17, 0x0551
    3df8:	80 91 4c 05 	lds	r24, 0x054C
    3dfc:	90 91 4d 05 	lds	r25, 0x054D
    3e00:	02 96       	adiw	r24, 0x02	; 2
    3e02:	0e 94 4b 18 	call	0x3096	; 0x3096 <vListRemove>
    3e06:	ce 01       	movw	r24, r28
    3e08:	80 0f       	add	r24, r16
    3e0a:	91 1f       	adc	r25, r17
    3e0c:	0e 94 1d 1e 	call	0x3c3a	; 0x3c3a <prvAddCurrentTaskToDelayedList>
    3e10:	0e 94 71 1e 	call	0x3ce2	; 0x3ce2 <xTaskResumeAll>
    3e14:	88 23       	and	r24, r24
    3e16:	11 f4       	brne	.+4      	; 0x3e1c <vTaskDelay+0x44>
    3e18:	0e 94 4f 19 	call	0x329e	; 0x329e <vPortYield>
    3e1c:	df 91       	pop	r29
    3e1e:	cf 91       	pop	r28
    3e20:	1f 91       	pop	r17
    3e22:	0f 91       	pop	r16
    3e24:	08 95       	ret

00003e26 <vTaskDelayUntil>:
    3e26:	cf 93       	push	r28
    3e28:	df 93       	push	r29
    3e2a:	fc 01       	movw	r30, r24
    3e2c:	eb 01       	movw	r28, r22
    3e2e:	80 91 52 05 	lds	r24, 0x0552
    3e32:	8f 5f       	subi	r24, 0xFF	; 255
    3e34:	80 93 52 05 	sts	0x0552, r24
    3e38:	20 81       	ld	r18, Z
    3e3a:	31 81       	ldd	r19, Z+1	; 0x01
    3e3c:	c2 0f       	add	r28, r18
    3e3e:	d3 1f       	adc	r29, r19
    3e40:	80 91 50 05 	lds	r24, 0x0550
    3e44:	90 91 51 05 	lds	r25, 0x0551
    3e48:	82 17       	cp	r24, r18
    3e4a:	93 07       	cpc	r25, r19
    3e4c:	28 f4       	brcc	.+10     	; 0x3e58 <vTaskDelayUntil+0x32>
    3e4e:	c2 17       	cp	r28, r18
    3e50:	d3 07       	cpc	r29, r19
    3e52:	28 f0       	brcs	.+10     	; 0x3e5e <vTaskDelayUntil+0x38>
    3e54:	20 e0       	ldi	r18, 0x00	; 0
    3e56:	0c c0       	rjmp	.+24     	; 0x3e70 <vTaskDelayUntil+0x4a>
    3e58:	c2 17       	cp	r28, r18
    3e5a:	d3 07       	cpc	r29, r19
    3e5c:	40 f0       	brcs	.+16     	; 0x3e6e <vTaskDelayUntil+0x48>
    3e5e:	80 91 50 05 	lds	r24, 0x0550
    3e62:	90 91 51 05 	lds	r25, 0x0551
    3e66:	20 e0       	ldi	r18, 0x00	; 0
    3e68:	8c 17       	cp	r24, r28
    3e6a:	9d 07       	cpc	r25, r29
    3e6c:	08 f4       	brcc	.+2      	; 0x3e70 <vTaskDelayUntil+0x4a>
    3e6e:	21 e0       	ldi	r18, 0x01	; 1
    3e70:	d1 83       	std	Z+1, r29	; 0x01
    3e72:	c0 83       	st	Z, r28
    3e74:	22 23       	and	r18, r18
    3e76:	51 f0       	breq	.+20     	; 0x3e8c <vTaskDelayUntil+0x66>
    3e78:	80 91 4c 05 	lds	r24, 0x054C
    3e7c:	90 91 4d 05 	lds	r25, 0x054D
    3e80:	02 96       	adiw	r24, 0x02	; 2
    3e82:	0e 94 4b 18 	call	0x3096	; 0x3096 <vListRemove>
    3e86:	ce 01       	movw	r24, r28
    3e88:	0e 94 1d 1e 	call	0x3c3a	; 0x3c3a <prvAddCurrentTaskToDelayedList>
    3e8c:	0e 94 71 1e 	call	0x3ce2	; 0x3ce2 <xTaskResumeAll>
    3e90:	88 23       	and	r24, r24
    3e92:	11 f4       	brne	.+4      	; 0x3e98 <vTaskDelayUntil+0x72>
    3e94:	0e 94 4f 19 	call	0x329e	; 0x329e <vPortYield>
    3e98:	df 91       	pop	r29
    3e9a:	cf 91       	pop	r28
    3e9c:	08 95       	ret

00003e9e <vTaskDelete>:
    3e9e:	ef 92       	push	r14
    3ea0:	ff 92       	push	r15
    3ea2:	0f 93       	push	r16
    3ea4:	1f 93       	push	r17
    3ea6:	cf 93       	push	r28
    3ea8:	df 93       	push	r29
    3eaa:	8c 01       	movw	r16, r24
    3eac:	0f b6       	in	r0, 0x3f	; 63
    3eae:	f8 94       	cli
    3eb0:	0f 92       	push	r0
    3eb2:	80 91 4c 05 	lds	r24, 0x054C
    3eb6:	90 91 4d 05 	lds	r25, 0x054D
    3eba:	08 17       	cp	r16, r24
    3ebc:	19 07       	cpc	r17, r25
    3ebe:	19 f4       	brne	.+6      	; 0x3ec6 <vTaskDelete+0x28>
    3ec0:	00 e0       	ldi	r16, 0x00	; 0
    3ec2:	10 e0       	ldi	r17, 0x00	; 0
    3ec4:	03 c0       	rjmp	.+6      	; 0x3ecc <vTaskDelete+0x2e>
    3ec6:	01 15       	cp	r16, r1
    3ec8:	11 05       	cpc	r17, r1
    3eca:	29 f4       	brne	.+10     	; 0x3ed6 <vTaskDelete+0x38>
    3ecc:	c0 91 4c 05 	lds	r28, 0x054C
    3ed0:	d0 91 4d 05 	lds	r29, 0x054D
    3ed4:	01 c0       	rjmp	.+2      	; 0x3ed8 <vTaskDelete+0x3a>
    3ed6:	e8 01       	movw	r28, r16
    3ed8:	22 e0       	ldi	r18, 0x02	; 2
    3eda:	e2 2e       	mov	r14, r18
    3edc:	f1 2c       	mov	r15, r1
    3ede:	ec 0e       	add	r14, r28
    3ee0:	fd 1e       	adc	r15, r29
    3ee2:	c7 01       	movw	r24, r14
    3ee4:	0e 94 4b 18 	call	0x3096	; 0x3096 <vListRemove>
    3ee8:	8c 89       	ldd	r24, Y+20	; 0x14
    3eea:	9d 89       	ldd	r25, Y+21	; 0x15
    3eec:	89 2b       	or	r24, r25
    3eee:	21 f0       	breq	.+8      	; 0x3ef8 <vTaskDelete+0x5a>
    3ef0:	ce 01       	movw	r24, r28
    3ef2:	0c 96       	adiw	r24, 0x0c	; 12
    3ef4:	0e 94 4b 18 	call	0x3096	; 0x3096 <vListRemove>
    3ef8:	86 ea       	ldi	r24, 0xA6	; 166
    3efa:	95 e0       	ldi	r25, 0x05	; 5
    3efc:	b7 01       	movw	r22, r14
    3efe:	0e 94 ed 17 	call	0x2fda	; 0x2fda <vListInsertEnd>
    3f02:	80 91 57 05 	lds	r24, 0x0557
    3f06:	8f 5f       	subi	r24, 0xFF	; 255
    3f08:	80 93 57 05 	sts	0x0557, r24
    3f0c:	80 91 58 05 	lds	r24, 0x0558
    3f10:	8f 5f       	subi	r24, 0xFF	; 255
    3f12:	80 93 58 05 	sts	0x0558, r24
    3f16:	0f 90       	pop	r0
    3f18:	0f be       	out	0x3f, r0	; 63
    3f1a:	80 91 56 05 	lds	r24, 0x0556
    3f1e:	88 23       	and	r24, r24
    3f20:	21 f0       	breq	.+8      	; 0x3f2a <vTaskDelete+0x8c>
    3f22:	01 2b       	or	r16, r17
    3f24:	11 f4       	brne	.+4      	; 0x3f2a <vTaskDelete+0x8c>
    3f26:	0e 94 4f 19 	call	0x329e	; 0x329e <vPortYield>
    3f2a:	df 91       	pop	r29
    3f2c:	cf 91       	pop	r28
    3f2e:	1f 91       	pop	r17
    3f30:	0f 91       	pop	r16
    3f32:	ff 90       	pop	r15
    3f34:	ef 90       	pop	r14
    3f36:	08 95       	ret

00003f38 <vTaskEndScheduler>:
    3f38:	f8 94       	cli
    3f3a:	10 92 56 05 	sts	0x0556, r1
    3f3e:	0e 94 f0 18 	call	0x31e0	; 0x31e0 <vPortEndScheduler>
    3f42:	08 95       	ret

00003f44 <prvIdleTask>:
    3f44:	0f 93       	push	r16
    3f46:	1f 93       	push	r17
    3f48:	80 91 57 05 	lds	r24, 0x0557
    3f4c:	88 23       	and	r24, r24
    3f4e:	e1 f3       	breq	.-8      	; 0x3f48 <prvIdleTask+0x4>
    3f50:	80 91 52 05 	lds	r24, 0x0552
    3f54:	8f 5f       	subi	r24, 0xFF	; 255
    3f56:	80 93 52 05 	sts	0x0552, r24
    3f5a:	10 91 a6 05 	lds	r17, 0x05A6
    3f5e:	0e 94 71 1e 	call	0x3ce2	; 0x3ce2 <xTaskResumeAll>
    3f62:	11 23       	and	r17, r17
    3f64:	89 f3       	breq	.-30     	; 0x3f48 <prvIdleTask+0x4>
    3f66:	0f b6       	in	r0, 0x3f	; 63
    3f68:	f8 94       	cli
    3f6a:	0f 92       	push	r0
    3f6c:	e0 91 ab 05 	lds	r30, 0x05AB
    3f70:	f0 91 ac 05 	lds	r31, 0x05AC
    3f74:	06 81       	ldd	r16, Z+6	; 0x06
    3f76:	17 81       	ldd	r17, Z+7	; 0x07
    3f78:	c8 01       	movw	r24, r16
    3f7a:	02 96       	adiw	r24, 0x02	; 2
    3f7c:	0e 94 4b 18 	call	0x3096	; 0x3096 <vListRemove>
    3f80:	80 91 55 05 	lds	r24, 0x0555
    3f84:	81 50       	subi	r24, 0x01	; 1
    3f86:	80 93 55 05 	sts	0x0555, r24
    3f8a:	80 91 57 05 	lds	r24, 0x0557
    3f8e:	81 50       	subi	r24, 0x01	; 1
    3f90:	80 93 57 05 	sts	0x0557, r24
    3f94:	0f 90       	pop	r0
    3f96:	0f be       	out	0x3f, r0	; 63
    3f98:	f8 01       	movw	r30, r16
    3f9a:	87 89       	ldd	r24, Z+23	; 0x17
    3f9c:	90 8d       	ldd	r25, Z+24	; 0x18
    3f9e:	0e 94 a2 17 	call	0x2f44	; 0x2f44 <vPortFree>
    3fa2:	c8 01       	movw	r24, r16
    3fa4:	0e 94 a2 17 	call	0x2f44	; 0x2f44 <vPortFree>
    3fa8:	cf cf       	rjmp	.-98     	; 0x3f48 <prvIdleTask+0x4>

00003faa <xTaskGenericCreate>:
    3faa:	2f 92       	push	r2
    3fac:	3f 92       	push	r3
    3fae:	4f 92       	push	r4
    3fb0:	5f 92       	push	r5
    3fb2:	7f 92       	push	r7
    3fb4:	8f 92       	push	r8
    3fb6:	9f 92       	push	r9
    3fb8:	af 92       	push	r10
    3fba:	bf 92       	push	r11
    3fbc:	cf 92       	push	r12
    3fbe:	df 92       	push	r13
    3fc0:	ef 92       	push	r14
    3fc2:	ff 92       	push	r15
    3fc4:	0f 93       	push	r16
    3fc6:	1f 93       	push	r17
    3fc8:	cf 93       	push	r28
    3fca:	df 93       	push	r29
    3fcc:	1c 01       	movw	r2, r24
    3fce:	4b 01       	movw	r8, r22
    3fd0:	5a 01       	movw	r10, r20
    3fd2:	29 01       	movw	r4, r18
    3fd4:	70 2e       	mov	r7, r16
    3fd6:	e6 01       	movw	r28, r12
    3fd8:	8d e2       	ldi	r24, 0x2D	; 45
    3fda:	90 e0       	ldi	r25, 0x00	; 0
    3fdc:	0e 94 b2 17 	call	0x2f64	; 0x2f64 <pvPortMalloc>
    3fe0:	6c 01       	movw	r12, r24
    3fe2:	00 97       	sbiw	r24, 0x00	; 0
    3fe4:	71 f0       	breq	.+28     	; 0x4002 <xTaskGenericCreate+0x58>
    3fe6:	20 97       	sbiw	r28, 0x00	; 0
    3fe8:	21 f4       	brne	.+8      	; 0x3ff2 <xTaskGenericCreate+0x48>
    3fea:	c5 01       	movw	r24, r10
    3fec:	0e 94 b2 17 	call	0x2f64	; 0x2f64 <pvPortMalloc>
    3ff0:	ec 01       	movw	r28, r24
    3ff2:	f6 01       	movw	r30, r12
    3ff4:	d0 8f       	std	Z+24, r29	; 0x18
    3ff6:	c7 8b       	std	Z+23, r28	; 0x17
    3ff8:	20 97       	sbiw	r28, 0x00	; 0
    3ffa:	29 f4       	brne	.+10     	; 0x4006 <xTaskGenericCreate+0x5c>
    3ffc:	c6 01       	movw	r24, r12
    3ffe:	0e 94 a2 17 	call	0x2f44	; 0x2f44 <vPortFree>
    4002:	8f ef       	ldi	r24, 0xFF	; 255
    4004:	bf c0       	rjmp	.+382    	; 0x4184 <xTaskGenericCreate+0x1da>
    4006:	ce 01       	movw	r24, r28
    4008:	65 ea       	ldi	r22, 0xA5	; 165
    400a:	70 e0       	ldi	r23, 0x00	; 0
    400c:	a5 01       	movw	r20, r10
    400e:	0e 94 78 22 	call	0x44f0	; 0x44f0 <memset>
    4012:	08 94       	sec
    4014:	a1 08       	sbc	r10, r1
    4016:	b1 08       	sbc	r11, r1
    4018:	f6 01       	movw	r30, r12
    401a:	c7 89       	ldd	r28, Z+23	; 0x17
    401c:	d0 8d       	ldd	r29, Z+24	; 0x18
    401e:	ca 0d       	add	r28, r10
    4020:	db 1d       	adc	r29, r11
    4022:	c6 01       	movw	r24, r12
    4024:	49 96       	adiw	r24, 0x19	; 25
    4026:	b4 01       	movw	r22, r8
    4028:	44 e1       	ldi	r20, 0x14	; 20
    402a:	50 e0       	ldi	r21, 0x00	; 0
    402c:	0e 94 7f 22 	call	0x44fe	; 0x44fe <strncpy>
    4030:	f6 01       	movw	r30, r12
    4032:	14 a6       	std	Z+44, r1	; 0x2c
    4034:	07 2d       	mov	r16, r7
    4036:	f4 e0       	ldi	r31, 0x04	; 4
    4038:	f7 15       	cp	r31, r7
    403a:	08 f4       	brcc	.+2      	; 0x403e <xTaskGenericCreate+0x94>
    403c:	04 e0       	ldi	r16, 0x04	; 4
    403e:	f6 01       	movw	r30, r12
    4040:	06 8b       	std	Z+22, r16	; 0x16
    4042:	42 e0       	ldi	r20, 0x02	; 2
    4044:	a4 2e       	mov	r10, r20
    4046:	b1 2c       	mov	r11, r1
    4048:	ac 0c       	add	r10, r12
    404a:	bd 1c       	adc	r11, r13
    404c:	c5 01       	movw	r24, r10
    404e:	0e 94 e9 17 	call	0x2fd2	; 0x2fd2 <vListInitialiseItem>
    4052:	c6 01       	movw	r24, r12
    4054:	0c 96       	adiw	r24, 0x0c	; 12
    4056:	0e 94 e9 17 	call	0x2fd2	; 0x2fd2 <vListInitialiseItem>
    405a:	f6 01       	movw	r30, r12
    405c:	d1 86       	std	Z+9, r13	; 0x09
    405e:	c0 86       	std	Z+8, r12	; 0x08
    4060:	85 e0       	ldi	r24, 0x05	; 5
    4062:	90 e0       	ldi	r25, 0x00	; 0
    4064:	80 1b       	sub	r24, r16
    4066:	91 09       	sbc	r25, r1
    4068:	95 87       	std	Z+13, r25	; 0x0d
    406a:	84 87       	std	Z+12, r24	; 0x0c
    406c:	d3 8a       	std	Z+19, r13	; 0x13
    406e:	c2 8a       	std	Z+18, r12	; 0x12
    4070:	ce 01       	movw	r24, r28
    4072:	b1 01       	movw	r22, r2
    4074:	a2 01       	movw	r20, r4
    4076:	0e 94 73 18 	call	0x30e6	; 0x30e6 <pxPortInitialiseStack>
    407a:	f6 01       	movw	r30, r12
    407c:	91 83       	std	Z+1, r25	; 0x01
    407e:	80 83       	st	Z, r24
    4080:	e1 14       	cp	r14, r1
    4082:	f1 04       	cpc	r15, r1
    4084:	19 f0       	breq	.+6      	; 0x408c <xTaskGenericCreate+0xe2>
    4086:	f7 01       	movw	r30, r14
    4088:	d1 82       	std	Z+1, r13	; 0x01
    408a:	c0 82       	st	Z, r12
    408c:	0f b6       	in	r0, 0x3f	; 63
    408e:	f8 94       	cli
    4090:	0f 92       	push	r0
    4092:	80 91 55 05 	lds	r24, 0x0555
    4096:	8f 5f       	subi	r24, 0xFF	; 255
    4098:	80 93 55 05 	sts	0x0555, r24
    409c:	80 91 4c 05 	lds	r24, 0x054C
    40a0:	90 91 4d 05 	lds	r25, 0x054D
    40a4:	89 2b       	or	r24, r25
    40a6:	79 f5       	brne	.+94     	; 0x4106 <xTaskGenericCreate+0x15c>
    40a8:	d0 92 4d 05 	sts	0x054D, r13
    40ac:	c0 92 4c 05 	sts	0x054C, r12
    40b0:	80 91 55 05 	lds	r24, 0x0555
    40b4:	81 30       	cpi	r24, 0x01	; 1
    40b6:	b1 f5       	brne	.+108    	; 0x4124 <xTaskGenericCreate+0x17a>
    40b8:	ca e5       	ldi	r28, 0x5A	; 90
    40ba:	d5 e0       	ldi	r29, 0x05	; 5
    40bc:	ce 01       	movw	r24, r28
    40be:	0e 94 d9 17 	call	0x2fb2	; 0x2fb2 <vListInitialise>
    40c2:	29 96       	adiw	r28, 0x09	; 9
    40c4:	f5 e0       	ldi	r31, 0x05	; 5
    40c6:	c7 38       	cpi	r28, 0x87	; 135
    40c8:	df 07       	cpc	r29, r31
    40ca:	c1 f7       	brne	.-16     	; 0x40bc <xTaskGenericCreate+0x112>
    40cc:	37 e8       	ldi	r19, 0x87	; 135
    40ce:	e3 2e       	mov	r14, r19
    40d0:	35 e0       	ldi	r19, 0x05	; 5
    40d2:	f3 2e       	mov	r15, r19
    40d4:	c7 01       	movw	r24, r14
    40d6:	0e 94 d9 17 	call	0x2fb2	; 0x2fb2 <vListInitialise>
    40da:	00 e9       	ldi	r16, 0x90	; 144
    40dc:	15 e0       	ldi	r17, 0x05	; 5
    40de:	c8 01       	movw	r24, r16
    40e0:	0e 94 d9 17 	call	0x2fb2	; 0x2fb2 <vListInitialise>
    40e4:	8d e9       	ldi	r24, 0x9D	; 157
    40e6:	95 e0       	ldi	r25, 0x05	; 5
    40e8:	0e 94 d9 17 	call	0x2fb2	; 0x2fb2 <vListInitialise>
    40ec:	86 ea       	ldi	r24, 0xA6	; 166
    40ee:	95 e0       	ldi	r25, 0x05	; 5
    40f0:	0e 94 d9 17 	call	0x2fb2	; 0x2fb2 <vListInitialise>
    40f4:	f0 92 9a 05 	sts	0x059A, r15
    40f8:	e0 92 99 05 	sts	0x0599, r14
    40fc:	10 93 9c 05 	sts	0x059C, r17
    4100:	00 93 9b 05 	sts	0x059B, r16
    4104:	0f c0       	rjmp	.+30     	; 0x4124 <xTaskGenericCreate+0x17a>
    4106:	80 91 56 05 	lds	r24, 0x0556
    410a:	88 23       	and	r24, r24
    410c:	59 f4       	brne	.+22     	; 0x4124 <xTaskGenericCreate+0x17a>
    410e:	e0 91 4c 05 	lds	r30, 0x054C
    4112:	f0 91 4d 05 	lds	r31, 0x054D
    4116:	86 89       	ldd	r24, Z+22	; 0x16
    4118:	78 16       	cp	r7, r24
    411a:	20 f0       	brcs	.+8      	; 0x4124 <xTaskGenericCreate+0x17a>
    411c:	d0 92 4d 05 	sts	0x054D, r13
    4120:	c0 92 4c 05 	sts	0x054C, r12
    4124:	f6 01       	movw	r30, r12
    4126:	96 89       	ldd	r25, Z+22	; 0x16
    4128:	80 91 59 05 	lds	r24, 0x0559
    412c:	89 17       	cp	r24, r25
    412e:	10 f4       	brcc	.+4      	; 0x4134 <xTaskGenericCreate+0x18a>
    4130:	90 93 59 05 	sts	0x0559, r25
    4134:	80 91 58 05 	lds	r24, 0x0558
    4138:	8f 5f       	subi	r24, 0xFF	; 255
    413a:	80 93 58 05 	sts	0x0558, r24
    413e:	f6 01       	movw	r30, r12
    4140:	96 89       	ldd	r25, Z+22	; 0x16
    4142:	80 91 53 05 	lds	r24, 0x0553
    4146:	89 17       	cp	r24, r25
    4148:	10 f4       	brcc	.+4      	; 0x414e <xTaskGenericCreate+0x1a4>
    414a:	90 93 53 05 	sts	0x0553, r25
    414e:	f6 01       	movw	r30, r12
    4150:	86 89       	ldd	r24, Z+22	; 0x16
    4152:	29 e0       	ldi	r18, 0x09	; 9
    4154:	82 9f       	mul	r24, r18
    4156:	c0 01       	movw	r24, r0
    4158:	11 24       	eor	r1, r1
    415a:	86 5a       	subi	r24, 0xA6	; 166
    415c:	9a 4f       	sbci	r25, 0xFA	; 250
    415e:	b5 01       	movw	r22, r10
    4160:	0e 94 ed 17 	call	0x2fda	; 0x2fda <vListInsertEnd>
    4164:	0f 90       	pop	r0
    4166:	0f be       	out	0x3f, r0	; 63
    4168:	80 91 56 05 	lds	r24, 0x0556
    416c:	88 23       	and	r24, r24
    416e:	49 f0       	breq	.+18     	; 0x4182 <xTaskGenericCreate+0x1d8>
    4170:	e0 91 4c 05 	lds	r30, 0x054C
    4174:	f0 91 4d 05 	lds	r31, 0x054D
    4178:	86 89       	ldd	r24, Z+22	; 0x16
    417a:	87 15       	cp	r24, r7
    417c:	10 f4       	brcc	.+4      	; 0x4182 <xTaskGenericCreate+0x1d8>
    417e:	0e 94 4f 19 	call	0x329e	; 0x329e <vPortYield>
    4182:	81 e0       	ldi	r24, 0x01	; 1
    4184:	df 91       	pop	r29
    4186:	cf 91       	pop	r28
    4188:	1f 91       	pop	r17
    418a:	0f 91       	pop	r16
    418c:	ff 90       	pop	r15
    418e:	ef 90       	pop	r14
    4190:	df 90       	pop	r13
    4192:	cf 90       	pop	r12
    4194:	bf 90       	pop	r11
    4196:	af 90       	pop	r10
    4198:	9f 90       	pop	r9
    419a:	8f 90       	pop	r8
    419c:	7f 90       	pop	r7
    419e:	5f 90       	pop	r5
    41a0:	4f 90       	pop	r4
    41a2:	3f 90       	pop	r3
    41a4:	2f 90       	pop	r2
    41a6:	08 95       	ret

000041a8 <vTaskStartScheduler>:
    41a8:	af 92       	push	r10
    41aa:	bf 92       	push	r11
    41ac:	cf 92       	push	r12
    41ae:	df 92       	push	r13
    41b0:	ef 92       	push	r14
    41b2:	ff 92       	push	r15
    41b4:	0f 93       	push	r16
    41b6:	82 ea       	ldi	r24, 0xA2	; 162
    41b8:	9f e1       	ldi	r25, 0x1F	; 31
    41ba:	60 e6       	ldi	r22, 0x60	; 96
    41bc:	70 e0       	ldi	r23, 0x00	; 0
    41be:	44 e6       	ldi	r20, 0x64	; 100
    41c0:	50 e0       	ldi	r21, 0x00	; 0
    41c2:	20 e0       	ldi	r18, 0x00	; 0
    41c4:	30 e0       	ldi	r19, 0x00	; 0
    41c6:	00 e0       	ldi	r16, 0x00	; 0
    41c8:	ee 24       	eor	r14, r14
    41ca:	ff 24       	eor	r15, r15
    41cc:	cc 24       	eor	r12, r12
    41ce:	dd 24       	eor	r13, r13
    41d0:	aa 24       	eor	r10, r10
    41d2:	bb 24       	eor	r11, r11
    41d4:	0e 94 d5 1f 	call	0x3faa	; 0x3faa <xTaskGenericCreate>
    41d8:	81 30       	cpi	r24, 0x01	; 1
    41da:	49 f4       	brne	.+18     	; 0x41ee <vTaskStartScheduler+0x46>
    41dc:	f8 94       	cli
    41de:	80 93 56 05 	sts	0x0556, r24
    41e2:	10 92 51 05 	sts	0x0551, r1
    41e6:	10 92 50 05 	sts	0x0550, r1
    41ea:	0e 94 bb 18 	call	0x3176	; 0x3176 <xPortStartScheduler>
    41ee:	0f 91       	pop	r16
    41f0:	ff 90       	pop	r15
    41f2:	ef 90       	pop	r14
    41f4:	df 90       	pop	r13
    41f6:	cf 90       	pop	r12
    41f8:	bf 90       	pop	r11
    41fa:	af 90       	pop	r10
    41fc:	08 95       	ret

000041fe <Task3_ReadUart>:
    41fe:	86 e7       	ldi	r24, 0x76	; 118
    4200:	91 e2       	ldi	r25, 0x21	; 33
    4202:	0e 94 a1 12 	call	0x2542	; 0x2542 <Set_RX_CallBack>
    4206:	0e 94 94 12 	call	0x2528	; 0x2528 <RX_InterruptEnable>
    420a:	80 91 16 06 	lds	r24, 0x0616
    420e:	88 23       	and	r24, r24
    4210:	e1 f3       	breq	.-8      	; 0x420a <Task3_ReadUart+0xc>
    4212:	80 91 af 05 	lds	r24, 0x05AF
    4216:	90 91 b0 05 	lds	r25, 0x05B0
    421a:	60 e0       	ldi	r22, 0x00	; 0
    421c:	70 e0       	ldi	r23, 0x00	; 0
    421e:	40 e0       	ldi	r20, 0x00	; 0
    4220:	50 e0       	ldi	r21, 0x00	; 0
    4222:	20 e0       	ldi	r18, 0x00	; 0
    4224:	0e 94 86 1b 	call	0x370c	; 0x370c <xQueueGenericSend>
    4228:	f0 cf       	rjmp	.-32     	; 0x420a <Task3_ReadUart+0xc>

0000422a <Task2_ButtonCheck>:
    422a:	cf 93       	push	r28
    422c:	df 93       	push	r29
    422e:	c8 ec       	ldi	r28, 0xC8	; 200
    4230:	d0 e0       	ldi	r29, 0x00	; 0
    4232:	80 e0       	ldi	r24, 0x00	; 0
    4234:	0e 94 09 12 	call	0x2412	; 0x2412 <DIO_ReadPin>
    4238:	88 23       	and	r24, r24
    423a:	e1 f4       	brne	.+56     	; 0x4274 <Task2_ButtonCheck+0x4a>
    423c:	80 91 af 05 	lds	r24, 0x05AF
    4240:	90 91 b0 05 	lds	r25, 0x05B0
    4244:	60 e0       	ldi	r22, 0x00	; 0
    4246:	70 e0       	ldi	r23, 0x00	; 0
    4248:	40 e0       	ldi	r20, 0x00	; 0
    424a:	50 e0       	ldi	r21, 0x00	; 0
    424c:	20 e0       	ldi	r18, 0x00	; 0
    424e:	0e 94 86 1b 	call	0x370c	; 0x370c <xQueueGenericSend>
    4252:	88 ee       	ldi	r24, 0xE8	; 232
    4254:	93 e0       	ldi	r25, 0x03	; 3
    4256:	fe 01       	movw	r30, r28
    4258:	31 97       	sbiw	r30, 0x01	; 1
    425a:	f1 f7       	brne	.-4      	; 0x4258 <Task2_ButtonCheck+0x2e>
    425c:	01 97       	sbiw	r24, 0x01	; 1
    425e:	d9 f7       	brne	.-10     	; 0x4256 <Task2_ButtonCheck+0x2c>
    4260:	88 e0       	ldi	r24, 0x08	; 8
    4262:	0e 94 2e 12 	call	0x245c	; 0x245c <DIO_TogglePin>
    4266:	88 ee       	ldi	r24, 0xE8	; 232
    4268:	93 e0       	ldi	r25, 0x03	; 3
    426a:	fe 01       	movw	r30, r28
    426c:	31 97       	sbiw	r30, 0x01	; 1
    426e:	f1 f7       	brne	.-4      	; 0x426c <Task2_ButtonCheck+0x42>
    4270:	01 97       	sbiw	r24, 0x01	; 1
    4272:	d9 f7       	brne	.-10     	; 0x426a <Task2_ButtonCheck+0x40>
    4274:	88 ec       	ldi	r24, 0xC8	; 200
    4276:	90 e0       	ldi	r25, 0x00	; 0
    4278:	0e 94 ec 1e 	call	0x3dd8	; 0x3dd8 <vTaskDelay>
    427c:	da cf       	rjmp	.-76     	; 0x4232 <Task2_ButtonCheck+0x8>

0000427e <Task1_LcdUpdate>:
    427e:	ff 92       	push	r15
    4280:	0f 93       	push	r16
    4282:	1f 93       	push	r17
    4284:	8d e4       	ldi	r24, 0x4D	; 77
    4286:	f8 2e       	mov	r15, r24
    4288:	01 e4       	ldi	r16, 0x41	; 65
    428a:	19 e4       	ldi	r17, 0x49	; 73
    428c:	80 91 af 05 	lds	r24, 0x05AF
    4290:	90 91 b0 05 	lds	r25, 0x05B0
    4294:	60 e0       	ldi	r22, 0x00	; 0
    4296:	70 e0       	ldi	r23, 0x00	; 0
    4298:	4f ef       	ldi	r20, 0xFF	; 255
    429a:	5f ef       	ldi	r21, 0xFF	; 255
    429c:	20 e0       	ldi	r18, 0x00	; 0
    429e:	0e 94 ba 1a 	call	0x3574	; 0x3574 <xQueueGenericReceive>
    42a2:	88 23       	and	r24, r24
    42a4:	f1 f0       	breq	.+60     	; 0x42e2 <Task1_LcdUpdate+0x64>
    42a6:	80 91 b1 05 	lds	r24, 0x05B1
    42aa:	81 36       	cpi	r24, 0x61	; 97
    42ac:	61 f4       	brne	.+24     	; 0x42c6 <Task1_LcdUpdate+0x48>
    42ae:	80 91 b2 05 	lds	r24, 0x05B2
    42b2:	88 36       	cpi	r24, 0x68	; 104
    42b4:	41 f4       	brne	.+16     	; 0x42c6 <Task1_LcdUpdate+0x48>
    42b6:	f0 92 b1 05 	sts	0x05B1, r15
    42ba:	00 93 b2 05 	sts	0x05B2, r16
    42be:	10 93 b3 05 	sts	0x05B3, r17
    42c2:	10 92 b4 05 	sts	0x05B4, r1
    42c6:	81 eb       	ldi	r24, 0xB1	; 177
    42c8:	95 e0       	ldi	r25, 0x05	; 5
    42ca:	0e 94 d3 14 	call	0x29a6	; 0x29a6 <LCD_WriteString>
    42ce:	10 92 16 06 	sts	0x0616, r1
    42d2:	10 92 15 06 	sts	0x0615, r1
    42d6:	8f e6       	ldi	r24, 0x6F	; 111
    42d8:	0e 94 7f 12 	call	0x24fe	; 0x24fe <UART_Send>
    42dc:	8b e6       	ldi	r24, 0x6B	; 107
    42de:	0e 94 7f 12 	call	0x24fe	; 0x24fe <UART_Send>
    42e2:	80 ed       	ldi	r24, 0xD0	; 208
    42e4:	97 e0       	ldi	r25, 0x07	; 7
    42e6:	0e 94 ec 1e 	call	0x3dd8	; 0x3dd8 <vTaskDelay>
    42ea:	d0 cf       	rjmp	.-96     	; 0x428c <Task1_LcdUpdate+0xe>

000042ec <Uart_Buffer>:
    42ec:	cf 93       	push	r28
    42ee:	df 93       	push	r29
    42f0:	80 91 16 06 	lds	r24, 0x0616
    42f4:	c8 2f       	mov	r28, r24
    42f6:	d0 e0       	ldi	r29, 0x00	; 0
    42f8:	0e 94 90 12 	call	0x2520	; 0x2520 <UART_ReceiveNoBlock>
    42fc:	cf 54       	subi	r28, 0x4F	; 79
    42fe:	da 4f       	sbci	r29, 0xFA	; 250
    4300:	88 83       	st	Y, r24
    4302:	80 91 15 06 	lds	r24, 0x0615
    4306:	8f 5f       	subi	r24, 0xFF	; 255
    4308:	80 93 15 06 	sts	0x0615, r24
    430c:	80 91 16 06 	lds	r24, 0x0616
    4310:	8f 5f       	subi	r24, 0xFF	; 255
    4312:	80 93 16 06 	sts	0x0616, r24
    4316:	df 91       	pop	r29
    4318:	cf 91       	pop	r28
    431a:	08 95       	ret

0000431c <vInitEcu>:
    431c:	78 94       	sei
    431e:	0e 94 7f 11 	call	0x22fe	; 0x22fe <DIO_Init>
    4322:	88 e0       	ldi	r24, 0x08	; 8
    4324:	60 e0       	ldi	r22, 0x00	; 0
    4326:	0e 94 ae 10 	call	0x215c	; 0x215c <DIO_InitPin>
    432a:	8a e0       	ldi	r24, 0x0A	; 10
    432c:	60 e0       	ldi	r22, 0x00	; 0
    432e:	0e 94 ae 10 	call	0x215c	; 0x215c <DIO_InitPin>
    4332:	80 e0       	ldi	r24, 0x00	; 0
    4334:	61 e0       	ldi	r22, 0x01	; 1
    4336:	0e 94 ae 10 	call	0x215c	; 0x215c <DIO_InitPin>
    433a:	88 e0       	ldi	r24, 0x08	; 8
    433c:	60 e0       	ldi	r22, 0x00	; 0
    433e:	0e 94 96 11 	call	0x232c	; 0x232c <DIO_WritePin>
    4342:	88 e0       	ldi	r24, 0x08	; 8
    4344:	60 e0       	ldi	r22, 0x00	; 0
    4346:	0e 94 96 11 	call	0x232c	; 0x232c <DIO_WritePin>
    434a:	0e 94 b5 15 	call	0x2b6a	; 0x2b6a <LCD_Init>
    434e:	0e 94 79 12 	call	0x24f2	; 0x24f2 <UART_Init>
    4352:	08 95       	ret

00004354 <main>:
    4354:	af 92       	push	r10
    4356:	bf 92       	push	r11
    4358:	cf 92       	push	r12
    435a:	df 92       	push	r13
    435c:	ef 92       	push	r14
    435e:	ff 92       	push	r15
    4360:	0f 93       	push	r16
    4362:	0e 94 8e 21 	call	0x431c	; 0x431c <vInitEcu>
    4366:	8f e3       	ldi	r24, 0x3F	; 63
    4368:	91 e2       	ldi	r25, 0x21	; 33
    436a:	60 e0       	ldi	r22, 0x00	; 0
    436c:	70 e0       	ldi	r23, 0x00	; 0
    436e:	4a ef       	ldi	r20, 0xFA	; 250
    4370:	50 e0       	ldi	r21, 0x00	; 0
    4372:	20 e0       	ldi	r18, 0x00	; 0
    4374:	30 e0       	ldi	r19, 0x00	; 0
    4376:	03 e0       	ldi	r16, 0x03	; 3
    4378:	ee 24       	eor	r14, r14
    437a:	ff 24       	eor	r15, r15
    437c:	cc 24       	eor	r12, r12
    437e:	dd 24       	eor	r13, r13
    4380:	aa 24       	eor	r10, r10
    4382:	bb 24       	eor	r11, r11
    4384:	0e 94 d5 1f 	call	0x3faa	; 0x3faa <xTaskGenericCreate>
    4388:	8f ef       	ldi	r24, 0xFF	; 255
    438a:	90 e2       	ldi	r25, 0x20	; 32
    438c:	60 e0       	ldi	r22, 0x00	; 0
    438e:	70 e0       	ldi	r23, 0x00	; 0
    4390:	4a ef       	ldi	r20, 0xFA	; 250
    4392:	50 e0       	ldi	r21, 0x00	; 0
    4394:	20 e0       	ldi	r18, 0x00	; 0
    4396:	30 e0       	ldi	r19, 0x00	; 0
    4398:	02 e0       	ldi	r16, 0x02	; 2
    439a:	0e 94 d5 1f 	call	0x3faa	; 0x3faa <xTaskGenericCreate>
    439e:	81 e0       	ldi	r24, 0x01	; 1
    43a0:	60 e0       	ldi	r22, 0x00	; 0
    43a2:	0e 94 2a 1c 	call	0x3854	; 0x3854 <xQueueCreate>
    43a6:	90 93 b0 05 	sts	0x05B0, r25
    43aa:	80 93 af 05 	sts	0x05AF, r24
    43ae:	00 97       	sbiw	r24, 0x00	; 0
    43b0:	39 f0       	breq	.+14     	; 0x43c0 <main+0x6c>
    43b2:	60 e0       	ldi	r22, 0x00	; 0
    43b4:	70 e0       	ldi	r23, 0x00	; 0
    43b6:	40 e0       	ldi	r20, 0x00	; 0
    43b8:	50 e0       	ldi	r21, 0x00	; 0
    43ba:	20 e0       	ldi	r18, 0x00	; 0
    43bc:	0e 94 86 1b 	call	0x370c	; 0x370c <xQueueGenericSend>
    43c0:	0e 94 d4 20 	call	0x41a8	; 0x41a8 <vTaskStartScheduler>
    43c4:	ff cf       	rjmp	.-2      	; 0x43c4 <main+0x70>

000043c6 <__udivmodhi4>:
    43c6:	aa 1b       	sub	r26, r26
    43c8:	bb 1b       	sub	r27, r27
    43ca:	51 e1       	ldi	r21, 0x11	; 17
    43cc:	07 c0       	rjmp	.+14     	; 0x43dc <__udivmodhi4_ep>

000043ce <__udivmodhi4_loop>:
    43ce:	aa 1f       	adc	r26, r26
    43d0:	bb 1f       	adc	r27, r27
    43d2:	a6 17       	cp	r26, r22
    43d4:	b7 07       	cpc	r27, r23
    43d6:	10 f0       	brcs	.+4      	; 0x43dc <__udivmodhi4_ep>
    43d8:	a6 1b       	sub	r26, r22
    43da:	b7 0b       	sbc	r27, r23

000043dc <__udivmodhi4_ep>:
    43dc:	88 1f       	adc	r24, r24
    43de:	99 1f       	adc	r25, r25
    43e0:	5a 95       	dec	r21
    43e2:	a9 f7       	brne	.-22     	; 0x43ce <__udivmodhi4_loop>
    43e4:	80 95       	com	r24
    43e6:	90 95       	com	r25
    43e8:	bc 01       	movw	r22, r24
    43ea:	cd 01       	movw	r24, r26
    43ec:	08 95       	ret

000043ee <__mulsi3>:
    43ee:	62 9f       	mul	r22, r18
    43f0:	d0 01       	movw	r26, r0
    43f2:	73 9f       	mul	r23, r19
    43f4:	f0 01       	movw	r30, r0
    43f6:	82 9f       	mul	r24, r18
    43f8:	e0 0d       	add	r30, r0
    43fa:	f1 1d       	adc	r31, r1
    43fc:	64 9f       	mul	r22, r20
    43fe:	e0 0d       	add	r30, r0
    4400:	f1 1d       	adc	r31, r1
    4402:	92 9f       	mul	r25, r18
    4404:	f0 0d       	add	r31, r0
    4406:	83 9f       	mul	r24, r19
    4408:	f0 0d       	add	r31, r0
    440a:	74 9f       	mul	r23, r20
    440c:	f0 0d       	add	r31, r0
    440e:	65 9f       	mul	r22, r21
    4410:	f0 0d       	add	r31, r0
    4412:	99 27       	eor	r25, r25
    4414:	72 9f       	mul	r23, r18
    4416:	b0 0d       	add	r27, r0
    4418:	e1 1d       	adc	r30, r1
    441a:	f9 1f       	adc	r31, r25
    441c:	63 9f       	mul	r22, r19
    441e:	b0 0d       	add	r27, r0
    4420:	e1 1d       	adc	r30, r1
    4422:	f9 1f       	adc	r31, r25
    4424:	bd 01       	movw	r22, r26
    4426:	cf 01       	movw	r24, r30
    4428:	11 24       	eor	r1, r1
    442a:	08 95       	ret

0000442c <__udivmodsi4>:
    442c:	a1 e2       	ldi	r26, 0x21	; 33
    442e:	1a 2e       	mov	r1, r26
    4430:	aa 1b       	sub	r26, r26
    4432:	bb 1b       	sub	r27, r27
    4434:	fd 01       	movw	r30, r26
    4436:	0d c0       	rjmp	.+26     	; 0x4452 <__udivmodsi4_ep>

00004438 <__udivmodsi4_loop>:
    4438:	aa 1f       	adc	r26, r26
    443a:	bb 1f       	adc	r27, r27
    443c:	ee 1f       	adc	r30, r30
    443e:	ff 1f       	adc	r31, r31
    4440:	a2 17       	cp	r26, r18
    4442:	b3 07       	cpc	r27, r19
    4444:	e4 07       	cpc	r30, r20
    4446:	f5 07       	cpc	r31, r21
    4448:	20 f0       	brcs	.+8      	; 0x4452 <__udivmodsi4_ep>
    444a:	a2 1b       	sub	r26, r18
    444c:	b3 0b       	sbc	r27, r19
    444e:	e4 0b       	sbc	r30, r20
    4450:	f5 0b       	sbc	r31, r21

00004452 <__udivmodsi4_ep>:
    4452:	66 1f       	adc	r22, r22
    4454:	77 1f       	adc	r23, r23
    4456:	88 1f       	adc	r24, r24
    4458:	99 1f       	adc	r25, r25
    445a:	1a 94       	dec	r1
    445c:	69 f7       	brne	.-38     	; 0x4438 <__udivmodsi4_loop>
    445e:	60 95       	com	r22
    4460:	70 95       	com	r23
    4462:	80 95       	com	r24
    4464:	90 95       	com	r25
    4466:	9b 01       	movw	r18, r22
    4468:	ac 01       	movw	r20, r24
    446a:	bd 01       	movw	r22, r26
    446c:	cf 01       	movw	r24, r30
    446e:	08 95       	ret

00004470 <__prologue_saves__>:
    4470:	2f 92       	push	r2
    4472:	3f 92       	push	r3
    4474:	4f 92       	push	r4
    4476:	5f 92       	push	r5
    4478:	6f 92       	push	r6
    447a:	7f 92       	push	r7
    447c:	8f 92       	push	r8
    447e:	9f 92       	push	r9
    4480:	af 92       	push	r10
    4482:	bf 92       	push	r11
    4484:	cf 92       	push	r12
    4486:	df 92       	push	r13
    4488:	ef 92       	push	r14
    448a:	ff 92       	push	r15
    448c:	0f 93       	push	r16
    448e:	1f 93       	push	r17
    4490:	cf 93       	push	r28
    4492:	df 93       	push	r29
    4494:	cd b7       	in	r28, 0x3d	; 61
    4496:	de b7       	in	r29, 0x3e	; 62
    4498:	ca 1b       	sub	r28, r26
    449a:	db 0b       	sbc	r29, r27
    449c:	0f b6       	in	r0, 0x3f	; 63
    449e:	f8 94       	cli
    44a0:	de bf       	out	0x3e, r29	; 62
    44a2:	0f be       	out	0x3f, r0	; 63
    44a4:	cd bf       	out	0x3d, r28	; 61
    44a6:	09 94       	ijmp

000044a8 <__epilogue_restores__>:
    44a8:	2a 88       	ldd	r2, Y+18	; 0x12
    44aa:	39 88       	ldd	r3, Y+17	; 0x11
    44ac:	48 88       	ldd	r4, Y+16	; 0x10
    44ae:	5f 84       	ldd	r5, Y+15	; 0x0f
    44b0:	6e 84       	ldd	r6, Y+14	; 0x0e
    44b2:	7d 84       	ldd	r7, Y+13	; 0x0d
    44b4:	8c 84       	ldd	r8, Y+12	; 0x0c
    44b6:	9b 84       	ldd	r9, Y+11	; 0x0b
    44b8:	aa 84       	ldd	r10, Y+10	; 0x0a
    44ba:	b9 84       	ldd	r11, Y+9	; 0x09
    44bc:	c8 84       	ldd	r12, Y+8	; 0x08
    44be:	df 80       	ldd	r13, Y+7	; 0x07
    44c0:	ee 80       	ldd	r14, Y+6	; 0x06
    44c2:	fd 80       	ldd	r15, Y+5	; 0x05
    44c4:	0c 81       	ldd	r16, Y+4	; 0x04
    44c6:	1b 81       	ldd	r17, Y+3	; 0x03
    44c8:	aa 81       	ldd	r26, Y+2	; 0x02
    44ca:	b9 81       	ldd	r27, Y+1	; 0x01
    44cc:	ce 0f       	add	r28, r30
    44ce:	d1 1d       	adc	r29, r1
    44d0:	0f b6       	in	r0, 0x3f	; 63
    44d2:	f8 94       	cli
    44d4:	de bf       	out	0x3e, r29	; 62
    44d6:	0f be       	out	0x3f, r0	; 63
    44d8:	cd bf       	out	0x3d, r28	; 61
    44da:	ed 01       	movw	r28, r26
    44dc:	08 95       	ret

000044de <memcpy>:
    44de:	fb 01       	movw	r30, r22
    44e0:	dc 01       	movw	r26, r24
    44e2:	02 c0       	rjmp	.+4      	; 0x44e8 <memcpy+0xa>
    44e4:	01 90       	ld	r0, Z+
    44e6:	0d 92       	st	X+, r0
    44e8:	41 50       	subi	r20, 0x01	; 1
    44ea:	50 40       	sbci	r21, 0x00	; 0
    44ec:	d8 f7       	brcc	.-10     	; 0x44e4 <memcpy+0x6>
    44ee:	08 95       	ret

000044f0 <memset>:
    44f0:	dc 01       	movw	r26, r24
    44f2:	01 c0       	rjmp	.+2      	; 0x44f6 <memset+0x6>
    44f4:	6d 93       	st	X+, r22
    44f6:	41 50       	subi	r20, 0x01	; 1
    44f8:	50 40       	sbci	r21, 0x00	; 0
    44fa:	e0 f7       	brcc	.-8      	; 0x44f4 <memset+0x4>
    44fc:	08 95       	ret

000044fe <strncpy>:
    44fe:	fb 01       	movw	r30, r22
    4500:	dc 01       	movw	r26, r24
    4502:	41 50       	subi	r20, 0x01	; 1
    4504:	50 40       	sbci	r21, 0x00	; 0
    4506:	48 f0       	brcs	.+18     	; 0x451a <strncpy+0x1c>
    4508:	01 90       	ld	r0, Z+
    450a:	0d 92       	st	X+, r0
    450c:	00 20       	and	r0, r0
    450e:	c9 f7       	brne	.-14     	; 0x4502 <strncpy+0x4>
    4510:	01 c0       	rjmp	.+2      	; 0x4514 <strncpy+0x16>
    4512:	1d 92       	st	X+, r1
    4514:	41 50       	subi	r20, 0x01	; 1
    4516:	50 40       	sbci	r21, 0x00	; 0
    4518:	e0 f7       	brcc	.-8      	; 0x4512 <strncpy+0x14>
    451a:	08 95       	ret

0000451c <_exit>:
    451c:	f8 94       	cli

0000451e <__stop_program>:
    451e:	ff cf       	rjmp	.-2      	; 0x451e <__stop_program>
